
LT24_RTOS.elf:     file format elf32-littlenios2
LT24_RTOS.elf
architecture: nios2:r1, flags 0x00000112:
EXEC_P, HAS_SYMS, D_PAGED
start address 0x020001bc

Program Header:
    LOAD off    0x00001000 vaddr 0x02000000 paddr 0x02000000 align 2**12
         filesz 0x00000020 memsz 0x00000020 flags r-x
    LOAD off    0x00001020 vaddr 0x02000020 paddr 0x02000020 align 2**12
         filesz 0x0003e2c0 memsz 0x0003e2c0 flags r-x
    LOAD off    0x0003f2e0 vaddr 0x0203e2e0 paddr 0x02041a14 align 2**12
         filesz 0x00003734 memsz 0x00003734 flags rw-
    LOAD off    0x00043148 vaddr 0x02045148 paddr 0x02045148 align 2**12
         filesz 0x00000000 memsz 0x0000b75c flags rw-

Sections:
Idx Name          Size      VMA       LMA       File off  Algn
  0 .entry        00000020  02000000  02000000  00001000  2**5
                  CONTENTS, ALLOC, LOAD, READONLY, CODE
  1 .exceptions   0000019c  02000020  02000020  00001020  2**2
                  CONTENTS, ALLOC, LOAD, READONLY, CODE
  2 .text         00023c34  020001bc  020001bc  000011bc  2**2
                  CONTENTS, ALLOC, LOAD, READONLY, CODE
  3 .rodata       0001a4f0  02023df0  02023df0  00024df0  2**2
                  CONTENTS, ALLOC, LOAD, READONLY, DATA
  4 .rwdata       00003734  0203e2e0  02041a14  0003f2e0  2**2
                  CONTENTS, ALLOC, LOAD, DATA, SMALL_DATA
  5 .bss          0000b75c  02045148  02045148  00043148  2**2
                  ALLOC, SMALL_DATA
  6 .snake_mem    00000000  00010000  00010000  00042a14  2**0
                  CONTENTS
  7 .SDRAM_Controler 00000000  020508a4  020508a4  00042a14  2**0
                  CONTENTS
  8 .background_mem 00000000  04000000  04000000  00042a14  2**0
                  CONTENTS
  9 .pic_mem      00000000  04006400  04006400  00042a14  2**0
                  CONTENTS
 10 .comment      00000023  00000000  00000000  00042a14  2**0
                  CONTENTS, READONLY
 11 .debug_aranges 00001408  00000000  00000000  00042a38  2**3
                  CONTENTS, READONLY, DEBUGGING
 12 .debug_info   00039b3e  00000000  00000000  00043e40  2**0
                  CONTENTS, READONLY, DEBUGGING
 13 .debug_abbrev 0000d5a5  00000000  00000000  0007d97e  2**0
                  CONTENTS, READONLY, DEBUGGING
 14 .debug_line   00011db3  00000000  00000000  0008af23  2**0
                  CONTENTS, READONLY, DEBUGGING
 15 .debug_frame  000047d4  00000000  00000000  0009ccd8  2**2
                  CONTENTS, READONLY, DEBUGGING
 16 .debug_str    0000685f  00000000  00000000  000a14ac  2**0
                  CONTENTS, READONLY, DEBUGGING
 17 .debug_loc    0001ba6a  00000000  00000000  000a7d0b  2**0
                  CONTENTS, READONLY, DEBUGGING
 18 .debug_alt_sim_info 00000060  00000000  00000000  000c3778  2**2
                  CONTENTS, READONLY, DEBUGGING
 19 .debug_ranges 00001a30  00000000  00000000  000c37d8  2**3
                  CONTENTS, READONLY, DEBUGGING
 20 .thread_model 00000006  00000000  00000000  000ccd1d  2**0
                  CONTENTS, READONLY
 21 .cpu          00000003  00000000  00000000  000ccd23  2**0
                  CONTENTS, READONLY
 22 .qsys         00000001  00000000  00000000  000ccd26  2**0
                  CONTENTS, READONLY
 23 .simulation_enabled 00000001  00000000  00000000  000ccd27  2**0
                  CONTENTS, READONLY
 24 .stderr_dev   00000009  00000000  00000000  000ccd28  2**0
                  CONTENTS, READONLY
 25 .stdin_dev    00000009  00000000  00000000  000ccd31  2**0
                  CONTENTS, READONLY
 26 .stdout_dev   00000009  00000000  00000000  000ccd3a  2**0
                  CONTENTS, READONLY
 27 .sopc_system_name 0000000d  00000000  00000000  000ccd43  2**0
                  CONTENTS, READONLY
 28 .quartus_project_dir 0000003a  00000000  00000000  000ccd50  2**0
                  CONTENTS, READONLY
 29 .jdi          0000543f  00000000  00000000  000ccd8a  2**0
                  CONTENTS, READONLY
 30 .sopcinfo     000ba0d4  00000000  00000000  000d21c9  2**0
                  CONTENTS, READONLY
SYMBOL TABLE:
02000000 l    d  .entry	00000000 .entry
02000020 l    d  .exceptions	00000000 .exceptions
020001bc l    d  .text	00000000 .text
02023df0 l    d  .rodata	00000000 .rodata
0203e2e0 l    d  .rwdata	00000000 .rwdata
02045148 l    d  .bss	00000000 .bss
00010000 l    d  .snake_mem	00000000 .snake_mem
020508a4 l    d  .SDRAM_Controler	00000000 .SDRAM_Controler
04000000 l    d  .background_mem	00000000 .background_mem
04006400 l    d  .pic_mem	00000000 .pic_mem
00000000 l    d  .comment	00000000 .comment
00000000 l    d  .debug_aranges	00000000 .debug_aranges
00000000 l    d  .debug_info	00000000 .debug_info
00000000 l    d  .debug_abbrev	00000000 .debug_abbrev
00000000 l    d  .debug_line	00000000 .debug_line
00000000 l    d  .debug_frame	00000000 .debug_frame
00000000 l    d  .debug_str	00000000 .debug_str
00000000 l    d  .debug_loc	00000000 .debug_loc
00000000 l    d  .debug_alt_sim_info	00000000 .debug_alt_sim_info
00000000 l    d  .debug_ranges	00000000 .debug_ranges
00000000 l    df *ABS*	00000000 ../LT24_RTOS_bsp//obj/HAL/src/crt0.o
02000204 l       .text	00000000 alt_after_alt_main
00000000 l    df *ABS*	00000000 alt_exception_entry.o
02000094 l       .exceptions	00000000 alt_exception_unknown
00000000 l    df *ABS*	00000000 alt_irq_handler.c
00000000 l    df *ABS*	00000000 I2C.c
00000000 l    df *ABS*	00000000 accelerometer_adxl345_spi.c
00000000 l    df *ABS*	00000000 gui.c
02045148 l     O .bss	00000004 x.4018
02041944 l     O .rwdata	00000004 y.4019
00000000 l    df *ABS*	00000000 gui_vpg.c
00000000 l    df *ABS*	00000000 tahomabold_20.c
02023e50 l     O .rodata	000000b6 tahomabold_20_33
02023f06 l     O .rodata	00000104 tahomabold_20_34
0202400a l     O .rodata	000001a0 tahomabold_20_35
020241aa l     O .rodata	00000152 tahomabold_20_36
020242fc l     O .rodata	00000270 tahomabold_20_37
0202456c l     O .rodata	000001ba tahomabold_20_38
02024726 l     O .rodata	0000009c tahomabold_20_39
020247c2 l     O .rodata	000000ea tahomabold_20_40
020248ac l     O .rodata	000000ea tahomabold_20_41
02024996 l     O .rodata	00000152 tahomabold_20_42
02024ae8 l     O .rodata	000001a0 tahomabold_20_43
02024c88 l     O .rodata	0000009c tahomabold_20_44
02024d24 l     O .rodata	000000ea tahomabold_20_45
02024e0e l     O .rodata	0000009c tahomabold_20_46
02024eaa l     O .rodata	00000138 tahomabold_20_47
02024fe2 l     O .rodata	00000152 tahomabold_20_48
02025134 l     O .rodata	00000152 tahomabold_20_49
02025286 l     O .rodata	00000152 tahomabold_20_50
020253d8 l     O .rodata	00000152 tahomabold_20_51
0202552a l     O .rodata	00000152 tahomabold_20_52
0202567c l     O .rodata	00000152 tahomabold_20_53
020257ce l     O .rodata	00000152 tahomabold_20_54
02025920 l     O .rodata	00000152 tahomabold_20_55
02025a72 l     O .rodata	00000152 tahomabold_20_56
02025bc4 l     O .rodata	00000152 tahomabold_20_57
02025d16 l     O .rodata	000000b6 tahomabold_20_58
02025dcc l     O .rodata	000000b6 tahomabold_20_59
02025e82 l     O .rodata	000001a0 tahomabold_20_60
02026022 l     O .rodata	000001a0 tahomabold_20_61
020261c2 l     O .rodata	000001a0 tahomabold_20_62
02026362 l     O .rodata	0000011e tahomabold_20_63
02026480 l     O .rodata	000001d4 tahomabold_20_64
02026654 l     O .rodata	0000016c tahomabold_20_65
020267c0 l     O .rodata	0000016c tahomabold_20_66
0202692c l     O .rodata	00000152 tahomabold_20_67
02026a7e l     O .rodata	00000186 tahomabold_20_68
02026c04 l     O .rodata	00000138 tahomabold_20_69
02026d3c l     O .rodata	00000138 tahomabold_20_70
02026e74 l     O .rodata	00000186 tahomabold_20_71
02026ffa l     O .rodata	00000186 tahomabold_20_72
02027180 l     O .rodata	00000104 tahomabold_20_73
02027284 l     O .rodata	00000104 tahomabold_20_74
02027388 l     O .rodata	0000016c tahomabold_20_75
020274f4 l     O .rodata	0000011e tahomabold_20_76
02027612 l     O .rodata	000001d4 tahomabold_20_77
020277e6 l     O .rodata	00000186 tahomabold_20_78
0202796c l     O .rodata	00000186 tahomabold_20_79
02027af2 l     O .rodata	00000152 tahomabold_20_80
02027c44 l     O .rodata	00000186 tahomabold_20_81
02027dca l     O .rodata	00000186 tahomabold_20_82
02027f50 l     O .rodata	00000152 tahomabold_20_83
020280a2 l     O .rodata	00000138 tahomabold_20_84
020281da l     O .rodata	00000186 tahomabold_20_85
02028360 l     O .rodata	0000016c tahomabold_20_86
020284cc l     O .rodata	00000222 tahomabold_20_87
020286ee l     O .rodata	0000016c tahomabold_20_88
0202885a l     O .rodata	0000016c tahomabold_20_89
020289c6 l     O .rodata	00000138 tahomabold_20_90
02028afe l     O .rodata	000000ea tahomabold_20_91
02028be8 l     O .rodata	00000138 tahomabold_20_92
02028d20 l     O .rodata	000000ea tahomabold_20_93
02028e0a l     O .rodata	000001a0 tahomabold_20_94
02028faa l     O .rodata	00000152 tahomabold_20_95
020290fc l     O .rodata	0000011e tahomabold_20_96
0202921a l     O .rodata	00000138 tahomabold_20_97
02029352 l     O .rodata	00000152 tahomabold_20_98
020294a4 l     O .rodata	0000011e tahomabold_20_99
020295c2 l     O .rodata	00000152 tahomabold_20_100
02029714 l     O .rodata	00000138 tahomabold_20_101
0202984c l     O .rodata	000000d0 tahomabold_20_102
0202991c l     O .rodata	00000152 tahomabold_20_103
02029a6e l     O .rodata	00000152 tahomabold_20_104
02029bc0 l     O .rodata	0000009c tahomabold_20_105
02029c5c l     O .rodata	000000ea tahomabold_20_106
02029d46 l     O .rodata	00000138 tahomabold_20_107
02029e7e l     O .rodata	0000009c tahomabold_20_108
02029f1a l     O .rodata	000001ee tahomabold_20_109
0202a108 l     O .rodata	00000152 tahomabold_20_110
0202a25a l     O .rodata	00000138 tahomabold_20_111
0202a392 l     O .rodata	00000152 tahomabold_20_112
0202a4e4 l     O .rodata	00000152 tahomabold_20_113
0202a636 l     O .rodata	000000ea tahomabold_20_114
0202a720 l     O .rodata	00000104 tahomabold_20_115
0202a824 l     O .rodata	000000d0 tahomabold_20_116
0202a8f4 l     O .rodata	00000152 tahomabold_20_117
0202aa46 l     O .rodata	00000138 tahomabold_20_118
0202ab7e l     O .rodata	000001d4 tahomabold_20_119
0202ad52 l     O .rodata	00000138 tahomabold_20_120
0202ae8a l     O .rodata	00000138 tahomabold_20_121
0202afc2 l     O .rodata	0000011e tahomabold_20_122
0202b0e0 l     O .rodata	00000138 tahomabold_20_123
0202b218 l     O .rodata	00000152 tahomabold_20_124
0202b36a l     O .rodata	00000138 tahomabold_20_125
0202b4a2 l     O .rodata	000001a0 tahomabold_20_126
00000000 l    df *ABS*	00000000 tahomabold_32.c
0202b642 l     O .rodata	000001b8 tahomabold_32_33
0202b7fa l     O .rodata	00000280 tahomabold_32_34
0202ba7a l     O .rodata	00000410 tahomabold_32_35
0202be8a l     O .rodata	00000320 tahomabold_32_36
0202c1aa l     O .rodata	000005f0 tahomabold_32_37
0202c79a l     O .rodata	00000410 tahomabold_32_38
0202cbaa l     O .rodata	00000168 tahomabold_32_39
0202cd12 l     O .rodata	00000258 tahomabold_32_40
0202cf6a l     O .rodata	00000258 tahomabold_32_41
0202d1c2 l     O .rodata	00000320 tahomabold_32_42
0202d4e2 l     O .rodata	00000410 tahomabold_32_43
0202d8f2 l     O .rodata	00000190 tahomabold_32_44
0202da82 l     O .rodata	00000230 tahomabold_32_45
0202dcb2 l     O .rodata	00000190 tahomabold_32_46
0202de42 l     O .rodata	000002d0 tahomabold_32_47
0202e112 l     O .rodata	00000320 tahomabold_32_48
0202e432 l     O .rodata	00000320 tahomabold_32_49
0202e752 l     O .rodata	00000320 tahomabold_32_50
0202ea72 l     O .rodata	00000320 tahomabold_32_51
0202ed92 l     O .rodata	00000320 tahomabold_32_52
0202f0b2 l     O .rodata	00000320 tahomabold_32_53
0202f3d2 l     O .rodata	00000320 tahomabold_32_54
0202f6f2 l     O .rodata	00000320 tahomabold_32_55
0202fa12 l     O .rodata	00000320 tahomabold_32_56
0202fd32 l     O .rodata	00000320 tahomabold_32_57
02030052 l     O .rodata	000001e0 tahomabold_32_58
02030232 l     O .rodata	000001e0 tahomabold_32_59
02030412 l     O .rodata	00000410 tahomabold_32_60
02030822 l     O .rodata	00000410 tahomabold_32_61
02030c32 l     O .rodata	00000410 tahomabold_32_62
02031042 l     O .rodata	000002d0 tahomabold_32_63
02031312 l     O .rodata	00000488 tahomabold_32_64
0203179a l     O .rodata	00000370 tahomabold_32_65
02031b0a l     O .rodata	00000370 tahomabold_32_66
02031e7a l     O .rodata	00000348 tahomabold_32_67
020321c2 l     O .rodata	000003c0 tahomabold_32_68
02032582 l     O .rodata	00000320 tahomabold_32_69
020328a2 l     O .rodata	000002f8 tahomabold_32_70
02032b9a l     O .rodata	000003c0 tahomabold_32_71
02032f5a l     O .rodata	000003c0 tahomabold_32_72
0203331a l     O .rodata	00000258 tahomabold_32_73
02033572 l     O .rodata	00000280 tahomabold_32_74
020337f2 l     O .rodata	00000398 tahomabold_32_75
02033b8a l     O .rodata	000002d0 tahomabold_32_76
02033e5a l     O .rodata	00000488 tahomabold_32_77
020342e2 l     O .rodata	000003e8 tahomabold_32_78
020346ca l     O .rodata	000003e8 tahomabold_32_79
02034ab2 l     O .rodata	00000348 tahomabold_32_80
02034dfa l     O .rodata	000003e8 tahomabold_32_81
020351e2 l     O .rodata	000003c0 tahomabold_32_82
020355a2 l     O .rodata	00000320 tahomabold_32_83
020358c2 l     O .rodata	00000320 tahomabold_32_84
02035be2 l     O .rodata	000003c0 tahomabold_32_85
02035fa2 l     O .rodata	00000370 tahomabold_32_86
02036312 l     O .rodata	00000528 tahomabold_32_87
0203683a l     O .rodata	00000370 tahomabold_32_88
02036baa l     O .rodata	00000370 tahomabold_32_89
02036f1a l     O .rodata	00000320 tahomabold_32_90
0203723a l     O .rodata	00000258 tahomabold_32_91
02037492 l     O .rodata	000002d0 tahomabold_32_92
02037762 l     O .rodata	00000258 tahomabold_32_93
020379ba l     O .rodata	00000410 tahomabold_32_94
02037dca l     O .rodata	00000320 tahomabold_32_95
020380ea l     O .rodata	000002a8 tahomabold_32_96
02038392 l     O .rodata	000002f8 tahomabold_32_97
0203868a l     O .rodata	00000320 tahomabold_32_98
020389aa l     O .rodata	000002a8 tahomabold_32_99
02038c52 l     O .rodata	00000320 tahomabold_32_100
02038f72 l     O .rodata	000002f8 tahomabold_32_101
0203926a l     O .rodata	00000230 tahomabold_32_102
0203949a l     O .rodata	00000320 tahomabold_32_103
020397ba l     O .rodata	00000320 tahomabold_32_104
02039ada l     O .rodata	00000190 tahomabold_32_105
02039c6a l     O .rodata	00000208 tahomabold_32_106
02039e72 l     O .rodata	000002f8 tahomabold_32_107
0203a16a l     O .rodata	00000190 tahomabold_32_108
0203a2fa l     O .rodata	000004d8 tahomabold_32_109
0203a7d2 l     O .rodata	00000320 tahomabold_32_110
0203aaf2 l     O .rodata	00000320 tahomabold_32_111
0203ae12 l     O .rodata	00000320 tahomabold_32_112
0203b132 l     O .rodata	00000320 tahomabold_32_113
0203b452 l     O .rodata	00000230 tahomabold_32_114
0203b682 l     O .rodata	00000280 tahomabold_32_115
0203b902 l     O .rodata	00000208 tahomabold_32_116
0203bb0a l     O .rodata	00000320 tahomabold_32_117
0203be2a l     O .rodata	000002f8 tahomabold_32_118
0203c122 l     O .rodata	00000460 tahomabold_32_119
0203c582 l     O .rodata	000002f8 tahomabold_32_120
0203c87a l     O .rodata	000002d0 tahomabold_32_121
0203cb4a l     O .rodata	000002a8 tahomabold_32_122
0203cdf2 l     O .rodata	00000320 tahomabold_32_123
0203d112 l     O .rodata	00000320 tahomabold_32_124
0203d432 l     O .rodata	00000320 tahomabold_32_125
0203d752 l     O .rodata	00000410 tahomabold_32_126
00000000 l    df *ABS*	00000000 ILI9341.c
00000000 l    df *ABS*	00000000 geometry.c
00000000 l    df *ABS*	00000000 simple_graphics.c
00000000 l    df *ABS*	00000000 simple_text.c
00000000 l    df *ABS*	00000000 hello_ucosii.c
00000000 l    df *ABS*	00000000 touch_spi.c
00000000 l    df *ABS*	00000000 terasic_spi.c
00000000 l    df *ABS*	00000000 w_sqrt.c
00000000 l    df *ABS*	00000000 e_sqrt.c
00000000 l    df *ABS*	00000000 s_fpclassify.c
00000000 l    df *ABS*	00000000 s_lib_ver.c
00000000 l    df *ABS*	00000000 s_matherr.c
00000000 l    df *ABS*	00000000 lib2-divmod.c
020085ec l     F .text	0000006c udivmodsi4
00000000 l    df *ABS*	00000000 adddf3.c
00000000 l    df *ABS*	00000000 divdf3.c
00000000 l    df *ABS*	00000000 ledf2.c
00000000 l    df *ABS*	00000000 muldf3.c
00000000 l    df *ABS*	00000000 subdf3.c
00000000 l    df *ABS*	00000000 fixdfsi.c
00000000 l    df *ABS*	00000000 floatsidf.c
00000000 l    df *ABS*	00000000 libgcc2.c
00000000 l    df *ABS*	00000000 libgcc2.c
00000000 l    df *ABS*	00000000 errno.c
00000000 l    df *ABS*	00000000 impure.c
0203fe8c l     O .rwdata	00000424 impure_data
00000000 l    df *ABS*	00000000 malloc.c
00000000 l    df *ABS*	00000000 mallocr.c
00000000 l    df *ABS*	00000000 memcpy.c
00000000 l    df *ABS*	00000000 memset.c
00000000 l    df *ABS*	00000000 printf.c
00000000 l    df *ABS*	00000000 puts.c
00000000 l    df *ABS*	00000000 rand.c
00000000 l    df *ABS*	00000000 sbrkr.c
00000000 l    df *ABS*	00000000 sprintf.c
00000000 l    df *ABS*	00000000 strcpy.c
00000000 l    df *ABS*	00000000 strlen.c
00000000 l    df *ABS*	00000000 vfprintf.c
0203dfce l     O .rodata	00000010 zeroes.4240
0203dfde l     O .rodata	00000010 blanks.4239
00000000 l    df *ABS*	00000000 time.c
00000000 l    df *ABS*	00000000 vfprintf.c
0203dfee l     O .rodata	00000010 zeroes.4255
0200f880 l     F .text	000000bc __sbprintf
0203dffe l     O .rodata	00000010 blanks.4254
00000000 l    df *ABS*	00000000 wsetup.c
00000000 l    df *ABS*	00000000 dtoa.c
0200fa90 l     F .text	00000200 quorem
00000000 l    df *ABS*	00000000 fflush.c
00000000 l    df *ABS*	00000000 findfp.c
0201164c l     F .text	00000008 __fp_lock
02011654 l     F .text	00000008 __fp_unlock
02011668 l     F .text	0000019c __sinit.part.1
00000000 l    df *ABS*	00000000 mallocr.c
00000000 l    df *ABS*	00000000 fvwrite.c
00000000 l    df *ABS*	00000000 fwalk.c
00000000 l    df *ABS*	00000000 gettimeofdayr.c
00000000 l    df *ABS*	00000000 int_errno.c
00000000 l    df *ABS*	00000000 locale.c
020406d8 l     O .rwdata	00000020 lc_ctype_charset
020406b8 l     O .rwdata	00000020 lc_message_charset
020406f8 l     O .rwdata	00000038 lconv
00000000 l    df *ABS*	00000000 makebuf.c
00000000 l    df *ABS*	00000000 memchr.c
00000000 l    df *ABS*	00000000 memmove.c
00000000 l    df *ABS*	00000000 mprec.c
0203e02c l     O .rodata	0000000c p05.2710
00000000 l    df *ABS*	00000000 mallocr.c
00000000 l    df *ABS*	00000000 stdio.c
00000000 l    df *ABS*	00000000 strcmp.c
00000000 l    df *ABS*	00000000 vfprintf.c
0203e150 l     O .rodata	00000010 zeroes.4184
0203e160 l     O .rodata	00000010 blanks.4183
00000000 l    df *ABS*	00000000 vfprintf.c
02015268 l     F .text	000000fc __sprint_r.part.0
0203e180 l     O .rodata	00000010 blanks.4199
0203e170 l     O .rodata	00000010 zeroes.4200
02016670 l     F .text	000000bc __sbprintf
00000000 l    df *ABS*	00000000 writer.c
00000000 l    df *ABS*	00000000 closer.c
00000000 l    df *ABS*	00000000 mallocr.c
00000000 l    df *ABS*	00000000 fclose.c
00000000 l    df *ABS*	00000000 fputwc.c
00000000 l    df *ABS*	00000000 fstatr.c
00000000 l    df *ABS*	00000000 isattyr.c
00000000 l    df *ABS*	00000000 lseekr.c
00000000 l    df *ABS*	00000000 readr.c
00000000 l    df *ABS*	00000000 wbuf.c
00000000 l    df *ABS*	00000000 wcrtomb.c
00000000 l    df *ABS*	00000000 wctomb_r.c
00000000 l    df *ABS*	00000000 libgcc2.c
00000000 l    df *ABS*	00000000 libgcc2.c
00000000 l    df *ABS*	00000000 libgcc2.c
00000000 l    df *ABS*	00000000 eqdf2.c
00000000 l    df *ABS*	00000000 gedf2.c
00000000 l    df *ABS*	00000000 floatunsidf.c
00000000 l    df *ABS*	00000000 alt_alarm_start.c
00000000 l    df *ABS*	00000000 alt_close.c
02017f1c l     F .text	00000050 alt_get_errno
00000000 l    df *ABS*	00000000 alt_dev.c
0201803c l     F .text	0000002c alt_dev_null_write
00000000 l    df *ABS*	00000000 alt_errno.c
00000000 l    df *ABS*	00000000 alt_fstat.c
02018068 l     F .text	00000050 alt_get_errno
00000000 l    df *ABS*	00000000 alt_gettod.c
00000000 l    df *ABS*	00000000 alt_iic.c
00000000 l    df *ABS*	00000000 alt_iic_isr_register.c
00000000 l    df *ABS*	00000000 alt_irq_vars.c
00000000 l    df *ABS*	00000000 alt_isatty.c
02018644 l     F .text	00000050 alt_get_errno
00000000 l    df *ABS*	00000000 alt_load.c
02018738 l     F .text	00000064 alt_load_section
00000000 l    df *ABS*	00000000 alt_lseek.c
0201881c l     F .text	00000050 alt_get_errno
00000000 l    df *ABS*	00000000 alt_main.c
00000000 l    df *ABS*	00000000 alt_read.c
02018a14 l     F .text	00000050 alt_get_errno
00000000 l    df *ABS*	00000000 alt_release_fd.c
00000000 l    df *ABS*	00000000 alt_sbrk.c
0204198c l     O .rwdata	00000004 heap_end
00000000 l    df *ABS*	00000000 alt_tick.c
00000000 l    df *ABS*	00000000 alt_usleep.c
00000000 l    df *ABS*	00000000 alt_write.c
02018f30 l     F .text	00000050 alt_get_errno
00000000 l    df *ABS*	00000000 alt_env_lock.c
02041998 l     O .rwdata	00000004 lockid
020451dc l     O .bss	00000004 locks
00000000 l    df *ABS*	00000000 alt_malloc_lock.c
0204199c l     O .rwdata	00000004 lockid
020451e4 l     O .bss	00000004 locks
00000000 l    df *ABS*	00000000 os_core.c
0201a964 l     F .text	00000044 OS_InitMisc
0201a9a8 l     F .text	00000068 OS_InitRdyList
0201ab08 l     F .text	000000e0 OS_InitTCBList
0201a888 l     F .text	000000dc OS_InitEventList
0201aa10 l     F .text	0000007c OS_InitTaskIdle
0201aa8c l     F .text	0000007c OS_InitTaskStat
0201ad68 l     F .text	00000070 OS_SchedNew
00000000 l    df *ABS*	00000000 os_dbg.c
00000000 l    df *ABS*	00000000 os_flag.c
0201cb5c l     F .text	00000110 OS_FlagTaskRdy
0201c8b4 l     F .text	000001c4 OS_FlagBlock
00000000 l    df *ABS*	00000000 os_mbox.c
00000000 l    df *ABS*	00000000 os_mem.c
00000000 l    df *ABS*	00000000 os_q.c
00000000 l    df *ABS*	00000000 os_sem.c
00000000 l    df *ABS*	00000000 os_task.c
00000000 l    df *ABS*	00000000 os_time.c
00000000 l    df *ABS*	00000000 alt_sys_init.c
02021b80 l     F .text	00000038 alt_dev_reg
020408d8 l     O .rwdata	0000106c JTAG_UART
00000000 l    df *ABS*	00000000 altera_avalon_jtag_uart_fd.c
00000000 l    df *ABS*	00000000 altera_avalon_jtag_uart_init.c
02021f24 l     F .text	000002a4 altera_avalon_jtag_uart_irq
020221c8 l     F .text	00000110 altera_avalon_jtag_uart_timeout
00000000 l    df *ABS*	00000000 altera_avalon_jtag_uart_ioctl.c
00000000 l    df *ABS*	00000000 altera_avalon_jtag_uart_read.c
00000000 l    df *ABS*	00000000 altera_avalon_jtag_uart_write.c
00000000 l    df *ABS*	00000000 altera_avalon_spi.c
00000000 l    df *ABS*	00000000 altera_avalon_timer_sc.c
02022ba4 l     F .text	00000074 alt_avalon_timer_sc_irq
00000000 l    df *ABS*	00000000 altera_avalon_timer_vars.c
00000000 l    df *ABS*	00000000 alt_busy_sleep.c
00000000 l    df *ABS*	00000000 alt_dcache_flush_all.c
00000000 l    df *ABS*	00000000 alt_dev_llist_insert.c
02022e3c l     F .text	00000050 alt_get_errno
00000000 l    df *ABS*	00000000 alt_do_ctors.c
00000000 l    df *ABS*	00000000 alt_do_dtors.c
00000000 l    df *ABS*	00000000 alt_icache_flush_all.c
00000000 l    df *ABS*	00000000 alt_io_redirect.c
02023018 l     F .text	000000c0 alt_open_fd
00000000 l    df *ABS*	00000000 alt_open.c
02023150 l     F .text	00000050 alt_get_errno
020231a0 l     F .text	000000cc alt_file_locked
00000000 l    df *ABS*	00000000 altera_nios2_qsys_irq.c
00000000 l    df *ABS*	00000000 os_cpu_a.o
00000040 l       *ABS*	00000000 OSCtxSw_SWITCH_PC
00000000 l    df *ABS*	00000000 os_cpu_c.c
00000014 l       *ABS*	00000000 OSTCBNext_OFFSET
00000032 l       *ABS*	00000000 OSTCBPrio_OFFSET
00000000 l       *ABS*	00000000 OSTCBStkPtr_OFFSET
00000000 l    df *ABS*	00000000 alt_find_dev.c
00000000 l    df *ABS*	00000000 alt_find_file.c
00000000 l    df *ABS*	00000000 alt_get_fd.c
00000000 l    df *ABS*	00000000 alt_icache_flush.c
00000000 l    df *ABS*	00000000 atexit.c
00000000 l    df *ABS*	00000000 exit.c
00000000 l    df *ABS*	00000000 memcmp.c
00000000 l    df *ABS*	00000000 __atexit.c
00000000 l    df *ABS*	00000000 __call_atexit.c
00000000 l    df *ABS*	00000000 alt_exit.c
02045160 g     O .bss	00000004 Flag1
02003a58 g     F .text	00000078 vid_draw_horiz_line
020137a4 g     F .text	00000074 _mprec_log10
020002e0 g     F .text	00000100 I2C_Read
020419ea g     O .rwdata	00000002 OSTaskNameSize
02013890 g     F .text	0000008c __any_on
02016bdc g     F .text	00000054 _isatty_r
0203e038 g     O .rodata	00000028 __mprec_tinytens
0200210c g     F .text	0000006c LCD_DrawPoint
02018940 g     F .text	000000d4 alt_main
0200b804 g     F .text	00000090 strcpy
0200b5b4 g     F .text	000000a8 _puts_r
0204d580 g     O .bss	00000100 alt_irq
02045164 g     O .bss	00000004 pTouch
02016c30 g     F .text	0000005c _lseek_r
0201df48 g     F .text	000000d0 OS_MemInit
02003bbc g     F .text	0000006c vid_color_convert16_24
020081ac g     F .text	00000130 sqrt
0204526c g     O .bss	00002000 task_game2_stk
02041a14 g       *ABS*	00000000 __flash_rwdata_start
02021b1c g     F .text	00000064 OSTimeSet
02017bd4 g     F .text	00000084 .hidden __eqdf2
04006400 g       *ABS*	00000000 __alt_mem_pic_mem
02007868 g     F .text	00000160 touch_enable_penirq
02012448 g     F .text	00000058 _gettimeofday_r
020195e0 g     F .text	00000610 OSEventPendMulti
020508a4 g       *ABS*	00000000 __alt_heap_start
020027e4 g     F .text	00000138 LCD_Pattern_Horizon
02023610 g     F .text	00000020 OSTaskCreateHook
020070f0 g     F .text	000000b0 clearSnake
0200b578 g     F .text	0000003c printf
020419c2 g     O .rwdata	00000002 OSMboxEn
02019c44 g     F .text	0000007c OSIntEnter
02016e3c g     F .text	0000009c _wcrtomb_r
02001014 g     F .text	000001d4 GUI_DeskInit
02000bc0 g     F .text	000000c0 ADXL345_SPI_Init
02013f5c g     F .text	0000005c __sseek
0201199c g     F .text	00000010 __sinit
02016ce8 g     F .text	00000138 __swbuf_r
020419d2 g     O .rwdata	00000002 OSQEn
020124a0 g     F .text	0000007c _setlocale_r
02011804 g     F .text	00000068 __sfmoreglue
020192b4 g     F .text	000000d0 __malloc_unlock
02006cac g     F .text	000000c8 boarderSnake
0202366c g     F .text	0000001c OSTaskStatHook
020036b0 g     F .text	00000148 vid_draw_box
020451ec g     O .bss	00000001 OSLockNesting
02002e24 g     F .text	00000044 PtCopy
02041951 g     O .rwdata	00000001 Snake2J
02041a10 g     O .rwdata	00000002 OSDataSize
020451ed g     O .bss	00000001 OSRunning
020054bc g     F .text	00000264 vid_print_string_alpha
02045240 g     O .bss	00000004 altera_avalon_timer_ts_freq
02012820 g     F .text	0000015c memmove
02045168 g     O .bss	00000004 Game_Over
020236a4 g     F .text	0000001c OSInitHookBegin
02041a08 g     O .rwdata	00000002 OSTmrSize
02011984 g     F .text	00000018 _cleanup
0201297c g     F .text	000000a8 _Balloc
0203fa74 g     O .rwdata	00000415 cour10_font_array
020451f0 g     O .bss	00000004 OSIdleCtr
0204516c g     O .bss	00000004 Screen
02017c58 g     F .text	000000e0 .hidden __gtdf2
0200348c g     F .text	0000011c vid_move_block
02023490 g       .text	00000000 OSStartTsk
0200ab10 g     F .text	00000010 __errno
0201b090 g     F .text	000002d4 OS_TCBInit
02005df4 g     F .text	000000e8 vid_string_pixel_length_alpha
02000744 g     F .text	00000130 i2c_write
02000000 g     F .entry	0000001c __reset
02002a38 g     F .text	0000003c Clr_BUFFER_FLAG
02041a0e g     O .rwdata	00000002 OSTmrWheelTblSize
02000020 g       *ABS*	00000000 __flash_exceptions_start
0200208c g     F .text	00000080 LCD_Clear
020419ae g     O .rwdata	00000002 OSEventSize
020451f4 g     O .bss	00000001 OSPrioHighRdy
02016b84 g     F .text	00000058 _fstat_r
02023630 g     F .text	00000020 OSTaskDelHook
020451a0 g     O .bss	00000004 errno
02013ed8 g     F .text	00000008 __seofread
02023470 g       .text	00000000 OSStartHighRdy
0202042c g     F .text	000001ec OSTaskCreateExt
02014230 g     F .text	00001038 ___svfiprintf_internal_r
0201c400 g     F .text	00000068 OSFlagPendGetFlagsRdy
020419ee g     O .rwdata	00000002 OSTaskStatStkSize
0201b4f0 g     F .text	00000308 OSFlagAccept
0201e61c g     F .text	000000b8 OSQFlush
0201e018 g     F .text	00000140 OSQAccept
020451cc g     O .bss	00000004 alt_argv
02049944 g       *ABS*	00000000 _gp
02018e0c g     F .text	00000124 usleep
02001844 g     F .text	000000b0 VPG_ColorPanel
02020270 g     F .text	000001bc OSTaskCreate
0201fd30 g     F .text	00000540 OSTaskChangePrio
020451e8 g     O .bss	00000004 alt_heapsem
0201b364 g     F .text	0000018c OSDebugInit
02020618 g     F .text	000003e0 OSTaskDel
020009c8 g     F .text	00000174 i2c_data_verify
02005720 g     F .text	00000148 seperate_color_channels
02040758 g     O .rwdata	00000180 alt_fd_list
0204d680 g     O .bss	00000370 OSFlagTbl
0201a674 g     F .text	000000b4 OS_EventTaskRemove
02023718 g     F .text	00000090 alt_find_dev
0200b2f0 g     F .text	00000138 memcpy
020419d8 g     O .rwdata	00000002 OSRdyTblSize
02045158 g     O .bss	00000004 restartcoin
0201165c g     F .text	0000000c _cleanup_r
0200a9dc g     F .text	000000d0 .hidden __floatsidf
020043ac g     F .text	00000738 vid_round_corner_points
0200759c g     F .text	00000068 Touch_UnInit
020230d8 g     F .text	00000078 alt_io_redirect
02009880 g     F .text	000000e0 .hidden __ltdf2
0204726c g     O .bss	00002000 task_game1_stk
02023df0 g       *ABS*	00000000 __DTOR_END__
020011e8 g     F .text	00000090 GUI_CheckButton
0200b65c g     F .text	00000014 puts
02019384 g     F .text	00000120 OSEventNameGet
020419bc g     O .rwdata	00000002 OSFlagMax
02002e68 g     F .text	0000005c vid_clean_screen
02000e48 g     F .text	00000044 ADXL345_SPI_IdRead
02008570 g     F .text	00000074 __fpclassifyd
02006c40 g     F .text	0000006c checkSnake
02013700 g     F .text	000000a4 __ratio
02019cc0 g     F .text	000000f4 OSIntExit
0201664c g     F .text	00000024 __vfiprintf_internal
020419f6 g     O .rwdata	00000002 OSTCBSize
020451f5 g     O .bss	00000001 OSPrioCur
02002fc8 g     F .text	00000154 vid_scroll_string_init
0202242c g     F .text	000002b4 altera_avalon_jtag_uart_read
0200ab20 g     F .text	00000014 malloc
0200b54c g     F .text	0000002c _printf_r
02007428 g     F .text	00000174 Touch_Init
02008708 g     F .text	00000008 .hidden __udivsi3
02018694 g     F .text	000000a4 isatty
020419dc g     O .rwdata	00000002 OSStkWidth
0203e088 g     O .rodata	000000c8 __mprec_tens
020419d0 g     O .rwdata	00000002 OSPtrSize
0201251c g     F .text	0000000c __locale_charset
020419b0 g     O .rwdata	00000002 OSEventTblSize
020451b4 g     O .bss	00000008 alt_timezone
02001278 g     F .text	0000021c GUI_DeskDraw
020233e4 g       .text	00000000 OSCtxSw
020239b8 g     F .text	0000008c alt_icache_flush
020004f0 g     F .text	00000158 I2C_MultipleRead
0204519c g     O .bss	00000004 __malloc_top_pad
020451f8 g     O .bss	00000004 OSTCBList
020451b0 g     O .bss	00000004 alt_fd_list_lock
02041968 g     O .rwdata	00000004 __mb_cur_max
0201254c g     F .text	0000000c _localeconv_r
02012d88 g     F .text	0000003c __i2b
02011e00 g     F .text	000004c0 __sfvwrite_r
0204d9f0 g     O .bss	00000c30 OSMemTbl
020451fc g     O .bss	00000001 OSTickStepState
0200b6ec g     F .text	00000054 _sbrk_r
020077f8 g     F .text	00000030 touch_empty_fifo
020071a0 g     F .text	00000288 sendSnake
020419d4 g     O .rwdata	00000002 OSQMax
02002d3c g     F .text	00000034 RectHeight
0204e620 g     O .bss	00000800 OSTaskStatStk
0201db78 g     F .text	000000f8 OSMemNameGet
020419b4 g     O .rwdata	00000002 OSFlagEn
02016c8c g     F .text	0000005c _read_r
020419fa g     O .rwdata	00000002 OSTimeTickHookEn
0201eb3c g     F .text	00000168 OSQPost
0201cc6c g     F .text	000000a0 OS_FlagUnlink
02041980 g     O .rwdata	00000004 alt_max_fd
0201ac38 g     F .text	00000064 OS_MemCopy
0201ac9c g     F .text	000000cc OS_Sched
02001820 g     F .text	00000024 VPG_XLine
020168a0 g     F .text	000000f0 _fclose_r
0201da88 g     F .text	000000f0 OSMemGet
02045170 g     O .bss	00000004 myOp
0201d784 g     F .text	00000110 OSMboxQuery
02020cf8 g     F .text	000001c0 OSTaskNameSet
0201161c g     F .text	00000030 fflush
02045198 g     O .bss	00000004 __malloc_max_sbrked_mem
02045200 g     O .bss	00000004 OSCtxSwCtr
02023688 g     F .text	0000001c OSTimeTickHook
020419be g     O .rwdata	00000002 OSFlagNameSize
0203eeb4 g     O .rwdata	00000bc0 tahomabold_32
0201a728 g     F .text	000000fc OS_EventTaskRemoveMulti
02008718 g     F .text	0000089c .hidden __adddf3
02001528 g     F .text	0000007c GUI_ClearPaintArea
0201a528 g     F .text	0000014c OS_EventTaskWaitMulti
02002af8 g     F .text	00000040 PtSet
020134a8 g     F .text	0000011c __b2d
020419d6 g     O .rwdata	00000002 OSQSize
02017644 g     F .text	00000590 .hidden __umoddi3
0201886c g     F .text	000000d4 lseek
0201f640 g     F .text	00000268 OSSemPend
02041954 g     O .rwdata	00000004 __fdlib_version
02041958 g     O .rwdata	00000004 _global_impure_ptr
02000c80 g     F .text	00000098 ADXL345_SPI_WaitDataReady
02003ed4 g     F .text	0000013c vid_draw_circle
0201391c g     F .text	00000568 _realloc_r
020419c0 g     O .rwdata	00000002 OSLowestPrio
020508a4 g       *ABS*	00000000 __bss_end
02018554 g     F .text	000000f0 alt_iic_isr_register
020236f8 g     F .text	00000020 OSTCBInitHook
02041a06 g     O .rwdata	00000002 OSTmrCfgTicksPerSec
02018d08 g     F .text	00000104 alt_tick
0201d518 g     F .text	00000110 OSMboxPost
02006d74 g     F .text	0000037c updateSnake
02002c1c g     F .text	00000088 RectOffset
02017084 g     F .text	000005c0 .hidden __udivdi3
020169a4 g     F .text	00000184 _fputwc_r
020419a8 g     O .rwdata	00000002 OSEventEn
0203e060 g     O .rodata	00000028 __mprec_bigtens
02012b6c g     F .text	00000104 __s2b
02041a02 g     O .rwdata	00000002 OSTmrCfgNameSize
02003c6c g     F .text	00000268 vid_draw_sloped_line
02017d38 g     F .text	000000a4 .hidden __floatunsidf
02013250 g     F .text	00000060 __mcmp
020019f0 g     F .text	000000e4 VPG_VGrid
020119bc g     F .text	00000018 __fp_lock_all
02018508 g     F .text	0000004c alt_ic_irq_enabled
02000208 g     F .text	000000d8 I2C_Write
02004010 g     F .text	0000039c vid_draw_round_corner_box
0201ca78 g     F .text	000000e4 OS_FlagInit
02018c70 g     F .text	00000098 alt_alarm_stop
020419e4 g     O .rwdata	00000002 OSTaskIdleStkSize
020451c4 g     O .bss	00000004 alt_irq_active
0201f228 g     F .text	000000b0 OSSemAccept
0201dd88 g     F .text	000000d8 OSMemPut
0201d894 g     F .text	000001f4 OSMemCreate
02045204 g     O .bss	00000004 OSIdleCtrMax
0200291c g     F .text	000000e0 LCD_Pattern_Vertical
020000ec g     F .exceptions	000000d0 alt_irq_handler
02040730 g     O .rwdata	00000028 alt_dev_null
020419f8 g     O .rwdata	00000002 OSTicksPerSec
0204926c g     O .bss	00002000 task_send_data_stk
02000648 g     F .text	00000088 i2c_start
020233e4 g       .text	00000000 OSIntCtxSw
02022df8 g     F .text	00000044 alt_dcache_flush_all
02012c70 g     F .text	00000068 __hi0bits
02007d10 g     F .text	00000078 touch_alarm_callback
0200a954 g     F .text	00000088 .hidden __fixdfsi
02007828 g     F .text	00000040 touch_is_pen_pressed
02045174 g     O .bss	00000004 irq_msg
02045208 g     O .bss	00000004 OSTCBFreeList
02041a14 g       *ABS*	00000000 __ram_rwdata_end
0201f8a8 g     F .text	0000016c OSSemPendAbort
02004f30 g     F .text	00000378 vid_draw_triangle
02041978 g     O .rwdata	00000008 alt_dev_list
02018f80 g     F .text	000000f8 write
0203e2e0 g     O .rwdata	00000014 szPallete
020419fc g     O .rwdata	00000002 OSVersionNbr
02045178 g     O .bss	00000004 Game1
0200538c g     F .text	00000130 CropImage16
0203e2e0 g       *ABS*	00000000 __ram_rodata_end
020180b8 g     F .text	000000b0 fstat
02009880 g     F .text	000000e0 .hidden __ledf2
0200311c g     F .text	00000370 vid_scroll_string
020419a4 g     O .rwdata	00000004 OSEndiannessTest
020079f8 g     F .text	00000318 touch_get_xy
02012fc0 g     F .text	00000140 __pow5mult
0201537c g     F .text	000012d0 ___vfiprintf_internal_r
020451ac g     O .bss	00000004 __nlocale_changed
02008710 g     F .text	00000008 .hidden __umodsi3
00010000 g       *ABS*	00000000 __alt_mem_snake_mem
02007784 g     F .text	00000074 touch_isr
02002d08 g     F .text	00000034 RectWidth
020419b6 g     O .rwdata	00000002 OSFlagGrpSize
020052a8 g     F .text	000000e4 CopyImage16
020508a4 g       *ABS*	00000000 end
02001ee4 g     F .text	000000a8 GUI_VPG
02000f5c g     F .text	00000060 GUI_ShowInfo
02021dd8 g     F .text	0000014c altera_avalon_jtag_uart_init
0201aefc g     F .text	000000cc OS_TaskStat
020037f8 g     F .text	000000f0 vid_print_char
02023df0 g       *ABS*	00000000 __CTOR_LIST__
04000000 g       *ABS*	00000000 __alt_stack_pointer
02008024 g     F .text	0000013c SPI_MultipleRead
02022c18 g     F .text	00000088 alt_avalon_timer_sc_init
0200aaac g     F .text	00000064 .hidden __clzsi2
020226e0 g     F .text	000002c0 altera_avalon_jtag_uart_write
02004b38 g     F .text	00000054 min3
02001d68 g     F .text	0000017c GUI_ShowPAT
02002ec4 g     F .text	000000c4 vid_draw_line
020119ac g     F .text	00000004 __sfp_lock_acquire
02012738 g     F .text	000000e8 memchr
0201abe8 g     F .text	00000050 OS_MemClr
0200d90c g     F .text	00001f50 ___vfprintf_internal_r
020234b4 g     F .text	0000015c OSTaskStkInit
0200b740 g     F .text	00000058 _sprintf_r
0204517c g     O .bss	00000004 Game2
02011b10 g     F .text	000002f0 _free_r
02012528 g     F .text	00000010 __locale_mb_cur_max
02001fd8 g     F .text	000000b4 LCD_SetCursor
0201a284 g     F .text	00000198 OS_EventTaskRdy
02023c20 g     F .text	00000194 __call_exitprocs
0204520c g     O .bss	00000001 OSCPUUsage
020451a8 g     O .bss	00000004 __mlocale_changed
02005edc g     F .text	00000130 LT24_ISR
02045180 g     O .bss	00000004 Accel
0204b26c g     O .bss	00002000 task_game_over_stk
020018f4 g     F .text	000000fc VPG_Grid
02041960 g     O .rwdata	00000004 __malloc_sbrk_base
020001bc g     F .text	0000004c _start
04000000 g       *ABS*	00000000 __alt_mem_background_mem
020451d4 g     O .bss	00000004 _alt_tick_rate
0201e6d4 g     F .text	000002fc OSQPend
02045150 g     O .bss	00000001 LT24_state
02021624 g     F .text	00000148 OSTimeDly
020079c8 g     F .text	00000030 touch_clear_input
0200b688 g     F .text	00000064 rand
02013100 g     F .text	00000150 __lshift
020229a0 g     F .text	00000204 alt_avalon_spi_command
020451d8 g     O .bss	00000004 _alt_nticks
02004bf0 g     F .text	00000100 vid_put_pixel_in_span_map
02018a64 g     F .text	000000fc read
02001bb8 g     F .text	000001b0 VPG_ColorBar
02021bec g     F .text	00000088 alt_sys_init
02014064 g     F .text	000001cc __ssprint_r
02041950 g     O .rwdata	00000001 Snake2I
02000000 g       *ABS*	00000000 __alt_mem_SDRAM_Controler
02023b0c g     F .text	00000114 __register_exitproc
02000d7c g     F .text	000000cc ADXL345_SPI_XYZ_Read
02045184 g     O .bss	00000004 touchX
0204520d g     O .bss	00000001 OSTaskCtr
0202176c g     F .text	0000015c OSTimeDlyHMSM
02012dc4 g     F .text	000001fc __multiply
020039c4 g     F .text	00000094 vid_paint_block
020222d8 g     F .text	00000068 altera_avalon_jtag_uart_close
0203e2e0 g       *ABS*	00000000 __ram_rwdata_start
02023df0 g       *ABS*	00000000 __ram_rodata_start
02045244 g     O .bss	00000028 __malloc_current_mallinfo
020419aa g     O .rwdata	00000002 OSEventMax
020135c4 g     F .text	0000013c __d2b
0201fa14 g     F .text	00000110 OSSemPost
02001ad4 g     F .text	000000e4 VPG_HGrid
02003b1c g     F .text	000000a0 vid_color_convert24_16
02019e3c g     F .text	000000d8 OSSchedUnlock
02021c74 g     F .text	00000060 altera_avalon_jtag_uart_read_fd
020238bc g     F .text	000000fc alt_get_fd
02045210 g     O .bss	00000004 OSMemFreeList
02019f80 g     F .text	000000ac OSStatInit
02022ca0 g     F .text	00000158 alt_busy_sleep
0201c7f0 g     F .text	000000c4 OSFlagQuery
020419e0 g     O .rwdata	00000002 OSTaskCreateExtEn
02016788 g     F .text	00000054 _close_r
020015a4 g     F .text	0000021c GUI
020059dc g     F .text	0000024c alpha_blending
02023a90 g     F .text	0000007c memcmp
0201a268 g     F .text	0000001c OS_Dummy
02021d34 g     F .text	00000050 altera_avalon_jtag_uart_close_fd
02000b3c g     F .text	00000084 I2C_Verify
020508a4 g       *ABS*	00000000 __alt_stack_base
02021d84 g     F .text	00000054 altera_avalon_jtag_uart_ioctl_fd
0200f93c g     F .text	00000154 __swsetup_r
0200600c g     F .text	00000178 init
0204ee20 g     O .bss	000001e0 OSQTbl
02045188 g     O .bss	00000004 touchY
02008fb4 g     F .text	000008cc .hidden __divdf3
0201186c g     F .text	00000118 __sfp
02013818 g     F .text	00000078 __copybits
020402b0 g     O .rwdata	00000408 __malloc_av_
020119b8 g     F .text	00000004 __sinit_lock_release
020006d0 g     F .text	00000074 i2c_stop
02045214 g     O .bss	00000004 OSTCBHighRdy
02009960 g     F .text	00000724 .hidden __muldf3
02013e84 g     F .text	00000054 __sread
0204514c g     O .bss	00000004 counter
02045218 g     O .bss	00000004 OSQFreeList
020237a8 g     F .text	00000114 alt_find_file
02022e8c g     F .text	000000a4 alt_dev_llist_insert
02019194 g     F .text	00000120 __malloc_lock
02003c28 g     F .text	00000044 vid_copy_line_to_frame_buffer
02018bc0 g     F .text	000000b0 sbrk
0200b92c g     F .text	00001f90 ___svfprintf_internal_r
020194a4 g     F .text	0000013c OSEventNameSet
020115c0 g     F .text	0000005c _fflush_r
020167dc g     F .text	000000c4 _calloc_r
0204521c g     O .bss	00000001 OSRdyGrp
02018168 g     F .text	0000020c gettimeofday
02045148 g       *ABS*	00000000 __bss_start
02002178 g     F .text	0000066c LCD_Init
0200b428 g     F .text	00000124 memset
02006184 g     F .text	00000100 main
020451d0 g     O .bss	00000004 alt_envp
02045194 g     O .bss	00000004 __malloc_max_total_mem
02021cd4 g     F .text	00000060 altera_avalon_jtag_uart_write_fd
02000fbc g     F .text	00000058 GUI_ShowTouchPoint
02000874 g     F .text	00000154 i2c_read
02016e20 g     F .text	0000001c __swbuf
0200b670 g     F .text	00000018 srand
0203e1ac g     O .rodata	00000100 OSUnMapTbl
0203e2f4 g     O .rwdata	00000bc0 tahomabold_20
020419da g     O .rwdata	00000002 OSSemEn
0201c468 g     F .text	00000388 OSFlagPost
02013fb8 g     F .text	00000008 __sclose
020085e4 g     F .text	00000008 matherr
04000000 g       *ABS*	00000000 __alt_heap_limit
02005c28 g     F .text	000001cc vid_print_char_alpha
02016990 g     F .text	00000014 fclose
0201a41c g     F .text	0000010c OS_EventTaskWait
02041948 g     O .rwdata	00000004 cour10_font
0201afc8 g     F .text	000000c8 OS_TaskStatStkChk
020209f8 g     F .text	00000158 OSTaskDelReq
0200fc90 g     F .text	00001728 _dtoa_r
0200ab48 g     F .text	000007a8 _malloc_r
02016f98 g     F .text	00000030 __ascii_wctomb
0200d8bc g     F .text	00000050 time
02041984 g     O .rwdata	00000004 alt_errno
02019f14 g     F .text	0000006c OSStart
02019138 g     F .text	0000005c __env_unlock
0204515c g     O .bss	00000001 Snake1I
020122c0 g     F .text	000000c4 _fwalk
02002d70 g     F .text	000000b4 PtDistance
02020eb8 g     F .text	000001f8 OSTaskResume
0201de60 g     F .text	000000e8 OSMemQuery
020419ec g     O .rwdata	00000002 OSTaskStatEn
02002b38 g     F .text	0000005c RectSet
020419c6 g     O .rwdata	00000002 OSMemMax
0201eca4 g     F .text	00000170 OSQPostFront
02001f8c g     F .text	0000004c Delay_Ms
02008658 g     F .text	00000054 .hidden __divsi3
0204521d g     O .bss	00000003 OSRdyTbl
020419a0 g     O .rwdata	00000002 OSDebugEn
02002ca4 g     F .text	00000064 RectCopy
020119ec g     F .text	00000124 _malloc_trim_r
02023df0 g       *ABS*	00000000 __CTOR_END__
020419b8 g     O .rwdata	00000002 OSFlagNodeSize
02041a00 g     O .rwdata	00000002 OSTmrCfgMax
02013fc0 g     F .text	000000a4 strcmp
0201e158 g     F .text	000001fc OSQCreate
02005998 g     F .text	00000044 read_from_frame
02020b50 g     F .text	000001a8 OSTaskNameGet
02023df0 g       *ABS*	00000000 __flash_rodata_start
0201ee14 g     F .text	0000020c OSQPostOpt
0201a02c g     F .text	0000021c OSTimeTick
020419e8 g     O .rwdata	00000002 OSTaskMax
02023df0 g       *ABS*	00000000 __DTOR_LIST__
0201f2d8 g     F .text	00000100 OSSemCreate
02041a0c g     O .rwdata	00000002 OSTmrWheelSize
02003984 g     F .text	00000040 vid_get_pixel
02017bd4 g     F .text	00000084 .hidden __nedf2
020419e2 g     O .rwdata	00000002 OSTaskDelEn
0201fb24 g     F .text	00000110 OSSemQuery
0201e354 g     F .text	000002c8 OSQDel
0201e9d0 g     F .text	0000016c OSQPendAbort
02021bb8 g     F .text	00000034 alt_irq_init
02018b60 g     F .text	00000060 alt_release_fd
02007fd0 g     F .text	00000054 SPI_Write
0200b798 g     F .text	0000006c sprintf
0203de81 g     O .rodata	00000100 .hidden __clz_tab
020451a4 g     O .bss	00000004 _PathLocale
02023a44 g     F .text	00000014 atexit
0201672c g     F .text	0000005c _write_r
02002a74 g     F .text	00000084 IsPtInRect
02019db4 g     F .text	00000088 OSSchedLock
02012558 g     F .text	0000001c setlocale
0201b7f8 g     F .text	00000128 OSFlagCreate
0204195c g     O .rwdata	00000004 _impure_ptr
020451c8 g     O .bss	00000004 alt_argc
020113b8 g     F .text	00000208 __sflush_r
0204523c g     O .bss	00000004 altera_avalon_timer_ts_base
02022f8c g     F .text	0000005c _do_dtors
02012544 g     F .text	00000008 __locale_cjk_lang
020419b2 g     O .rwdata	00000002 OSEventMultiEn
0201b920 g     F .text	00000270 OSFlagDel
02045220 g     O .bss	00000004 OSEventFreeList
0201d3ac g     F .text	0000016c OSMboxPendAbort
02000020 g       .exceptions	00000000 alt_irq_entry
02013448 g     F .text	00000060 __ulp
0201be10 g     F .text	000005f0 OSFlagPend
020419fe g     O .rwdata	00000002 OSTmrEn
020119d4 g     F .text	00000018 __fp_unlock_all
0200763c g     F .text	00000148 Touch_GetXY
020003e0 g     F .text	00000110 I2C_MultipleWrite
02041970 g     O .rwdata	00000008 alt_fs_list
0201add8 g     F .text	00000074 OS_StrCopy
020035a8 g     F .text	00000108 vid_print_string
020063b0 g     F .text	0000035c task_send_data
020451bc g     O .bss	00000008 alt_resettime
020419c8 g     O .rwdata	00000002 OSMemNameSize
020236c0 g     F .text	0000001c OSInitHookEnd
02000020 g       *ABS*	00000000 __ram_exceptions_start
020419f4 g     O .rwdata	00000002 OSTCBPrioTblMax
02012574 g     F .text	0000000c localeconv
020082dc g     F .text	00000294 __ieee754_sqrt
020419f0 g     O .rwdata	00000002 OSTaskStatStkChkEn
0201cda4 g     F .text	000000fc OSMboxCreate
02018374 g     F .text	00000050 alt_ic_isr_register
020419c4 g     O .rwdata	00000002 OSMemEn
020419ce g     O .rwdata	00000002 OSMutexEn
02041a14 g       *ABS*	00000000 _edata
0204518c g     O .bss	00000004 Flag2
0204515d g     O .bss	00000001 Snake1J
020508a4 g       *ABS*	00000000 _end
02045224 g     O .bss	00000001 OSIntNesting
020017c0 g     F .text	00000060 ShowInfo
02004ae4 g     F .text	00000054 max3
020001bc g       *ABS*	00000000 __ram_exceptions_end
02022340 g     F .text	000000ec altera_avalon_jtag_uart_ioctl
020218c8 g     F .text	000001f0 OSTimeDlyResume
0201bcc0 g     F .text	00000150 OSFlagNameSet
0201d108 g     F .text	000002a4 OSMboxPend
020210b0 g     F .text	000001c8 OSTaskStkChk
02018464 g     F .text	000000a4 alt_ic_irq_disable
020419ca g     O .rwdata	00000002 OSMemSize
02003ad0 g     F .text	0000004c vid_merge_colors
02013ee0 g     F .text	0000007c __swrite
02041964 g     O .rwdata	00000004 __malloc_trim_threshold
020233c4 g     F .text	00000020 altera_nios2_qsys_irq_init
02012538 g     F .text	0000000c __locale_msgcharset
02045228 g     O .bss	00000004 OSTCBCur
02023a58 g     F .text	00000038 exit
020419cc g     O .rwdata	00000002 OSMemTblSize
02012384 g     F .text	000000c4 _fwalk_reent
020132b0 g     F .text	00000198 __mdiff
02001494 g     F .text	00000094 IsContinuedPoint
020086ac g     F .text	0000005c .hidden __modsi3
0201cd0c g     F .text	00000098 OSMboxAccept
04000000 g       *ABS*	00000000 __alt_data_end
02000020 g     F .exceptions	00000000 alt_exception
020119b0 g     F .text	00000004 __sfp_lock_release
02019bf0 g     F .text	00000054 OSInit
0202148c g     F .text	0000012c OSTaskQuery
02000d18 g     F .text	00000064 ADXL345_SPI_IsDataReady
0201f17c g     F .text	000000ac OS_QInit
0201ae4c g     F .text	00000054 OS_StrLen
02007d88 g     F .text	000000d8 touch_xy_transform
0201dc70 g     F .text	00000118 OSMemNameSet
020038e8 g     F .text	0000009c vid_set_pixel
020419e6 g     O .rwdata	00000002 OSTaskProfileEn
020029fc g     F .text	0000003c Set_BUFFER_FLAG
0204522c g     O .bss	00000004 OSTime
02006284 g     F .text	0000012c task_game_over
02007eb4 g     F .text	0000011c SPI_MultipleWrite
0204f000 g     O .bss	00000800 OSTaskIdleStk
02023db4 g     F .text	0000003c _exit
0201d628 g     F .text	0000015c OSMboxPostOpt
0201bb90 g     F .text	00000130 OSFlagNameGet
02017ddc g     F .text	00000140 alt_alarm_start
02021ab8 g     F .text	00000064 OSTimeGet
02002f88 g     F .text	00000040 vid_scroll_string_quit
02017024 g     F .text	00000060 .hidden __muldi3
02012580 g     F .text	000001b8 __smakebuf_r
0200b894 g     F .text	00000098 strlen
02023650 g     F .text	0000001c OSTaskSwHook
0202326c g     F .text	00000158 open
0204f800 g     O .bss	00000b40 OSEventTbl
02017c58 g     F .text	000000e0 .hidden __gedf2
02050340 g     O .bss	00000510 OSTCBTbl
02002b94 g     F .text	00000088 RectInflate
0201fc34 g     F .text	000000fc OSSemSet
0204196c g     O .rwdata	00000004 __wctomb
02015364 g     F .text	00000018 __sprint_r
02022fe8 g     F .text	00000030 alt_icache_flush_all
02007e60 g     F .text	00000054 SPI_Init
0200670c g     F .text	00000534 task_game1
02041988 g     O .rwdata	00000004 alt_priority_mask
0201f3d8 g     F .text	00000268 OSSemDel
02045230 g     O .bss	00000004 OSFlagFreeList
020183c4 g     F .text	000000a0 alt_ic_irq_enable
020419ac g     O .rwdata	00000002 OSEventNameSize
0201cea0 g     F .text	00000268 OSMboxDel
0200f85c g     F .text	00000024 __vfprintf_internal
02045234 g     O .bss	00000001 OSStatRdy
02050850 g     O .bss	00000054 OSTCBPrioTbl
02016fc8 g     F .text	0000005c _wctomb_r
02019078 g     F .text	000000c0 __env_lock
020419f2 g     O .rwdata	00000002 OSTaskSwHookEn
0200a084 g     F .text	000008d0 .hidden __subdf3
02004cf0 g     F .text	00000240 vid_bres_scan_edges
02008160 g     F .text	0000004c SPI_Read
02012cd8 g     F .text	000000b0 __lo0bits
0204194c g     O .rwdata	00000004 Operation
02041990 g     O .rwdata	00000008 alt_alarm_list
02045154 g     O .bss	00000004 coins
02004b8c g     F .text	00000064 max_diff3
020419ba g     O .rwdata	00000002 OSFlagWidth
02022f30 g     F .text	0000005c _do_ctors
02000e8c g     F .text	000000d0 GUI_ShowWelcome
02005868 g     F .text	00000130 merge_color_channels
0204d26c g     O .bss	00000014 Display
02016ed8 g     F .text	000000c0 wcrtomb
02017f6c g     F .text	000000d0 close
020451e0 g     O .bss	00000004 alt_envsem
02045238 g     O .bss	00000004 OSIdleCtrRun
0204d280 g     O .bss	00000300 Snake
0201a248 g     F .text	00000020 OSVersion
02041a04 g     O .rwdata	00000002 OSTmrCfgWheelSize
0201879c g     F .text	00000080 alt_load
020215b8 g     F .text	0000006c OS_TaskStkClr
02007604 g     F .text	00000038 Touch_EmptyFifo
020419de g     O .rwdata	00000002 OSTaskCreateEn
0201a824 g     F .text	00000064 OS_EventWaitListInit
02045190 g     O .bss	00000004 GameOverBox
02016b28 g     F .text	0000005c fputwc
020236dc g     F .text	0000001c OSTaskIdleHook
0200ab34 g     F .text	00000014 free
020119b4 g     F .text	00000004 __sinit_lock_acquire
02012a4c g     F .text	00000120 __multadd
02021278 g     F .text	00000214 OSTaskSuspend
02012a24 g     F .text	00000028 _Bfree
0201aea0 g     F .text	0000005c OS_TaskIdle
02041a0a g     O .rwdata	00000002 OSTmrTblSize
0201f020 g     F .text	0000015c OSQQuery



Disassembly of section .entry:

02000000 <__reset>:
#if NIOS2_ICACHE_SIZE > 0 && defined(ALT_ALLOW_CODE_AT_RESET) && !defined(ALT_SIM_OPTIMIZE)
    /* Assume the instruction cache size is always a power of two. */
#if NIOS2_ICACHE_SIZE > 0x8000
    movhi r2, %hi(NIOS2_ICACHE_SIZE)
#else
    movui r2, NIOS2_ICACHE_SIZE
 2000000:	00840014 	movui	r2,4096
#endif

0:
    initi r2
 2000004:	1001483a 	initi	r2
    addi r2, r2, -NIOS2_ICACHE_LINE_SIZE
 2000008:	10bff804 	addi	r2,r2,-32
    bgt r2, zero, 0b
 200000c:	00bffd16 	blt	zero,r2,2000004 <__reset+0x4>
 * Jump to the _start entry point in the .text section if reset code
 * is allowed or if optimizing for RTL simulation.
 */
#if defined(ALT_ALLOW_CODE_AT_RESET) || defined(ALT_SIM_OPTIMIZE)
    /* Jump to the _start entry point in the .text section. */
    movhi r1, %hi(_start)
 2000010:	00408034 	movhi	at,512
    ori r1, r1, %lo(_start)
 2000014:	08406f14 	ori	at,at,444
    jmp r1
 2000018:	0800683a 	jmp	at
 200001c:	00000000 	call	0 <OSTCBStkPtr_OFFSET>

Disassembly of section .exceptions:

02000020 <alt_exception>:

#else /* ALT_EXCEPTION_STACK disabled */
        /* 
         * Reserve space on normal stack for registers about to be pushed.
         */
        addi  sp, sp, -76
 2000020:	deffed04 	addi	sp,sp,-76
         * documentation for details).
         *
         * Leave a gap in the stack frame at 4(sp) for the muldiv handler to
         * store zero into.
         */
        stw   ra,  0(sp)
 2000024:	dfc00015 	stw	ra,0(sp)
        stw   r1,   8(sp)
 2000028:	d8400215 	stw	at,8(sp)
        stw   r2,  12(sp)
 200002c:	d8800315 	stw	r2,12(sp)
        stw   r3,  16(sp)
 2000030:	d8c00415 	stw	r3,16(sp)
        stw   r4,  20(sp)
 2000034:	d9000515 	stw	r4,20(sp)
        stw   r5,  24(sp)
 2000038:	d9400615 	stw	r5,24(sp)
        stw   r6,  28(sp)
 200003c:	d9800715 	stw	r6,28(sp)
        stw   r7,  32(sp)
 2000040:	d9c00815 	stw	r7,32(sp)
        rdctl r5, estatus   /* Read early to avoid usage stall */
 2000044:	000b307a 	rdctl	r5,estatus
        stw   r8,  36(sp)
 2000048:	da000915 	stw	r8,36(sp)
        stw   r9,  40(sp)
 200004c:	da400a15 	stw	r9,40(sp)
        stw   r10, 44(sp)
 2000050:	da800b15 	stw	r10,44(sp)
        stw   r11, 48(sp)
 2000054:	dac00c15 	stw	r11,48(sp)
        stw   r12, 52(sp)
 2000058:	db000d15 	stw	r12,52(sp)
        stw   r13, 56(sp)
 200005c:	db400e15 	stw	r13,56(sp)
        stw   r14, 60(sp)
 2000060:	db800f15 	stw	r14,60(sp)
        stw   r15, 64(sp)
 2000064:	dbc01015 	stw	r15,64(sp)
        /*
         * ea-4 contains the address of the instruction being executed
         * when the exception occured. For interrupt exceptions, we will
         * will be re-issue the isntruction. Store it in 72(sp)
         */
        stw   r5,  68(sp)  /* estatus */
 2000068:	d9401115 	stw	r5,68(sp)
        addi  r15, ea, -4  /* instruction that caused exception */
 200006c:	ebffff04 	addi	r15,ea,-4
        stw   r15,  72(sp)
 2000070:	dbc01215 	stw	r15,72(sp)
#else
        /*
         * Test to see if the exception was a software exception or caused 
         * by an external interrupt, and vector accordingly.
         */
        rdctl r4, ipending
 2000074:	0009313a 	rdctl	r4,ipending
        andi  r2, r5, 1
 2000078:	2880004c 	andi	r2,r5,1
        beq   r2, zero, .Lnot_irq
 200007c:	10000326 	beq	r2,zero,200008c <alt_exception+0x6c>
        beq   r4, zero, .Lnot_irq
 2000080:	20000226 	beq	r4,zero,200008c <alt_exception+0x6c>
        /*
         * Now that all necessary registers have been preserved, call 
         * alt_irq_handler() to process the interrupts.
         */

        call alt_irq_handler
 2000084:	20000ec0 	call	20000ec <alt_irq_handler>

        .section .exceptions.irqreturn, "xa"

        br    .Lexception_exit
 2000088:	00000306 	br	2000098 <alt_exception_unknown+0x4>
         * upon completion, so we write ea (address of instruction *after*
         * the one where the exception occured) into 72(sp). The actual
         * instruction that caused the exception is written in r2, which these
         * handlers will utilize.
         */
        stw   ea,  72(sp)  /* Don't re-issue */
 200008c:	df401215 	stw	ea,72(sp)
        ldw   r2, -4(ea)   /* Instruction that caused exception */
 2000090:	e8bfff17 	ldw	r2,-4(ea)

02000094 <alt_exception_unknown>:
#ifdef NIOS2_HAS_DEBUG_STUB
       /*
        *  Either tell the user now (if there is a debugger attached) or go into
        *  the debug monitor which will loop until a debugger is attached.
        */
        break
 2000094:	003da03a 	break	0
        /* 
         * Restore the saved registers, so that all general purpose registers 
         * have been restored to their state at the time the interrupt occured.
         */

        ldw   r5,  68(sp)
 2000098:	d9401117 	ldw	r5,68(sp)
        ldw   ea,  72(sp)  /* This becomes the PC once eret is executed */
 200009c:	df401217 	ldw	ea,72(sp)
        ldw   ra,   0(sp)
 20000a0:	dfc00017 	ldw	ra,0(sp)

        wrctl estatus, r5
 20000a4:	2801707a 	wrctl	estatus,r5

        ldw   r1,   8(sp)
 20000a8:	d8400217 	ldw	at,8(sp)
        ldw   r2,  12(sp)
 20000ac:	d8800317 	ldw	r2,12(sp)
        ldw   r3,  16(sp)
 20000b0:	d8c00417 	ldw	r3,16(sp)
        ldw   r4,  20(sp)
 20000b4:	d9000517 	ldw	r4,20(sp)
        ldw   r5,  24(sp)
 20000b8:	d9400617 	ldw	r5,24(sp)
        ldw   r6,  28(sp)
 20000bc:	d9800717 	ldw	r6,28(sp)
        ldw   r7,  32(sp)
 20000c0:	d9c00817 	ldw	r7,32(sp)

#if defined(ALT_EXCEPTION_STACK) && defined(ALT_STACK_CHECK)
        ldw   et, %gprel(alt_exception_old_stack_limit)(gp)
#endif

        ldw   r8,  36(sp)
 20000c4:	da000917 	ldw	r8,36(sp)
        ldw   r9,  40(sp)
 20000c8:	da400a17 	ldw	r9,40(sp)
        ldw   r10, 44(sp)
 20000cc:	da800b17 	ldw	r10,44(sp)
        ldw   r11, 48(sp)
 20000d0:	dac00c17 	ldw	r11,48(sp)
        ldw   r12, 52(sp)
 20000d4:	db000d17 	ldw	r12,52(sp)
        ldw   r13, 56(sp)
 20000d8:	db400e17 	ldw	r13,56(sp)
        ldw   r14, 60(sp)
 20000dc:	db800f17 	ldw	r14,60(sp)
        ldw   r15, 64(sp)
 20000e0:	dbc01017 	ldw	r15,64(sp)
        stw   et, %gprel(alt_stack_limit_value)(gp)
        stw   zero, %gprel(alt_exception_old_stack_limit)(gp)
#endif /* ALT_STACK_CHECK */
        ldw   sp,  76(sp)
#else /* ALT_EXCEPTION_STACK disabled */
        addi  sp, sp, 76
 20000e4:	dec01304 	addi	sp,sp,76

        /*
         * Return to the interrupted instruction.
         */

        eret
 20000e8:	ef80083a 	eret

020000ec <alt_irq_handler>:
 * instruction is present if the macro ALT_CI_INTERRUPT_VECTOR defined.
 */

void alt_irq_handler (void) __attribute__ ((section (".exceptions")));
void alt_irq_handler (void)
{
 20000ec:	defff904 	addi	sp,sp,-28
 20000f0:	dfc00615 	stw	ra,24(sp)
 20000f4:	df000515 	stw	fp,20(sp)
 20000f8:	df000504 	addi	fp,sp,20
  
  /*
   * Notify the operating system that we are at interrupt level.
   */ 
  
  ALT_OS_INT_ENTER();
 20000fc:	2019c440 	call	2019c44 <OSIntEnter>
#ifndef NIOS2_EIC_PRESENT
static ALT_INLINE alt_u32 ALT_ALWAYS_INLINE alt_irq_pending (void)
{
  alt_u32 active;

  NIOS2_READ_IPENDING (active);
 2000100:	0005313a 	rdctl	r2,ipending
 2000104:	e0bffe15 	stw	r2,-8(fp)

  return active;
 2000108:	e0bffe17 	ldw	r2,-8(fp)
   * Consider the case where the high priority interupt is asserted during
   * the interrupt entry sequence for a lower priority interrupt to see why
   * this is the case.
   */

  active = alt_irq_pending ();
 200010c:	e0bffb15 	stw	r2,-20(fp)

  do
  {
    i = 0;
 2000110:	e03ffd15 	stw	zero,-12(fp)
    mask = 1;
 2000114:	00800044 	movi	r2,1
 2000118:	e0bffc15 	stw	r2,-16(fp)
     * called to clear the interrupt condition.
     */

    do
    {
      if (active & mask)
 200011c:	e0fffb17 	ldw	r3,-20(fp)
 2000120:	e0bffc17 	ldw	r2,-16(fp)
 2000124:	1884703a 	and	r2,r3,r2
 2000128:	10001426 	beq	r2,zero,200017c <alt_irq_handler+0x90>
      { 
#ifdef ALT_ENHANCED_INTERRUPT_API_PRESENT
        alt_irq[i].handler(alt_irq[i].context); 
 200012c:	00808174 	movhi	r2,517
 2000130:	10b56004 	addi	r2,r2,-10880
 2000134:	e0fffd17 	ldw	r3,-12(fp)
 2000138:	180690fa 	slli	r3,r3,3
 200013c:	10c5883a 	add	r2,r2,r3
 2000140:	10c00017 	ldw	r3,0(r2)
 2000144:	00808174 	movhi	r2,517
 2000148:	10b56004 	addi	r2,r2,-10880
 200014c:	e13ffd17 	ldw	r4,-12(fp)
 2000150:	200890fa 	slli	r4,r4,3
 2000154:	21000104 	addi	r4,r4,4
 2000158:	1105883a 	add	r2,r2,r4
 200015c:	10800017 	ldw	r2,0(r2)
 2000160:	1009883a 	mov	r4,r2
 2000164:	183ee83a 	callr	r3
#else
        alt_irq[i].handler(alt_irq[i].context, i); 
#endif
        break;
 2000168:	0001883a 	nop
#ifndef NIOS2_EIC_PRESENT
static ALT_INLINE alt_u32 ALT_ALWAYS_INLINE alt_irq_pending (void)
{
  alt_u32 active;

  NIOS2_READ_IPENDING (active);
 200016c:	0005313a 	rdctl	r2,ipending
 2000170:	e0bfff15 	stw	r2,-4(fp)

  return active;
 2000174:	e0bfff17 	ldw	r2,-4(fp)
 2000178:	00000706 	br	2000198 <alt_irq_handler+0xac>
      }
      mask <<= 1;
 200017c:	e0bffc17 	ldw	r2,-16(fp)
 2000180:	1085883a 	add	r2,r2,r2
 2000184:	e0bffc15 	stw	r2,-16(fp)
      i++;
 2000188:	e0bffd17 	ldw	r2,-12(fp)
 200018c:	10800044 	addi	r2,r2,1
 2000190:	e0bffd15 	stw	r2,-12(fp)

    } while (1);
 2000194:	003fe106 	br	200011c <alt_irq_handler+0x30>

    active = alt_irq_pending ();
 2000198:	e0bffb15 	stw	r2,-20(fp)
    
  } while (active);
 200019c:	e0bffb17 	ldw	r2,-20(fp)
 20001a0:	103fdb1e 	bne	r2,zero,2000110 <alt_irq_handler+0x24>

  /*
   * Notify the operating system that interrupt processing is complete.
   */ 

  ALT_OS_INT_EXIT();
 20001a4:	2019cc00 	call	2019cc0 <OSIntExit>
}
 20001a8:	e037883a 	mov	sp,fp
 20001ac:	dfc00117 	ldw	ra,4(sp)
 20001b0:	df000017 	ldw	fp,0(sp)
 20001b4:	dec00204 	addi	sp,sp,8
 20001b8:	f800283a 	ret

Disassembly of section .text:

020001bc <_start>:

    /* Assume the data cache size is always a power of two. */
#if NIOS2_DCACHE_SIZE > 0x8000
    movhi r2, %hi(NIOS2_DCACHE_SIZE)
#else
    movui r2, NIOS2_DCACHE_SIZE
 20001bc:	00820014 	movui	r2,2048
#endif

0:
    initd 0(r2)
 20001c0:	10000033 	initd	0(r2)
#ifdef NIOS2_ECC_PRESENT
    addi r2, r2, -4
#else
    addi r2, r2, -NIOS2_DCACHE_LINE_SIZE
 20001c4:	10bff804 	addi	r2,r2,-32
#endif
    bgt r2, zero, 0b
 20001c8:	00bffd16 	blt	zero,r2,20001c0 <_start+0x4>

    /*
     * Now that the caches are initialized, set up the stack pointer and global pointer.
     * The values provided by the linker are assumed to be correctly aligned.
     */
    movhi sp, %hi(__alt_stack_pointer)
 20001cc:	06c10034 	movhi	sp,1024
    ori sp, sp, %lo(__alt_stack_pointer)
 20001d0:	dec00014 	ori	sp,sp,0
    movhi gp, %hi(_gp)
 20001d4:	06808134 	movhi	gp,516
    ori gp, gp, %lo(_gp)
 20001d8:	d6a65114 	ori	gp,gp,39236
 */
#ifndef ALT_SIM_OPTIMIZE
    /* Log that the BSS is about to be cleared. */
    ALT_LOG_PUTS(alt_log_msg_bss)

    movhi r2, %hi(__bss_start)
 20001dc:	00808134 	movhi	r2,516
    ori r2, r2, %lo(__bss_start)
 20001e0:	10945214 	ori	r2,r2,20808

    movhi r3, %hi(__bss_end)
 20001e4:	00c08174 	movhi	r3,517
    ori r3, r3, %lo(__bss_end)
 20001e8:	18c22914 	ori	r3,r3,2212

    beq r2, r3, 1f
 20001ec:	10c00326 	beq	r2,r3,20001fc <_start+0x40>

0:
    stw zero, (r2)
 20001f0:	10000015 	stw	zero,0(r2)
    addi r2, r2, 4
 20001f4:	10800104 	addi	r2,r2,4
    bltu r2, r3, 0b
 20001f8:	10fffd36 	bltu	r2,r3,20001f0 <_start+0x34>
     * section aren't defined until alt_load() has been called).
     */
    mov   et, zero
#endif

    call alt_load
 20001fc:	201879c0 	call	201879c <alt_load>

    /* Log that alt_main is about to be called. */
    ALT_LOG_PUTS(alt_log_msg_alt_main)

    /* Call the C entry point. It should never return. */
    call alt_main
 2000200:	20189400 	call	2018940 <alt_main>

02000204 <alt_after_alt_main>:

    /* Wait in infinite loop in case alt_main does return. */
alt_after_alt_main:
    br alt_after_alt_main
 2000204:	003fff06 	br	2000204 <alt_after_alt_main>

02000208 <I2C_Write>:
bool i2c_write(alt_u32 clk_base, alt_u32 data_base, alt_u8 Data);
void i2c_read(alt_u32 clk_base, alt_u32 data_base, alt_u8 *pData, bool bAck);



bool I2C_Write(alt_u32 clk_base, alt_u32 data_base, alt_8 DeviceAddr, alt_u8 ControlAddr, alt_u8 ControlData){
 2000208:	defff804 	addi	sp,sp,-32
 200020c:	dfc00715 	stw	ra,28(sp)
 2000210:	df000615 	stw	fp,24(sp)
 2000214:	df000604 	addi	fp,sp,24
 2000218:	e13ffb15 	stw	r4,-20(fp)
 200021c:	e17ffc15 	stw	r5,-16(fp)
 2000220:	3009883a 	mov	r4,r6
 2000224:	3807883a 	mov	r3,r7
 2000228:	e0800217 	ldw	r2,8(fp)
 200022c:	e13ffd05 	stb	r4,-12(fp)
 2000230:	e0fffe05 	stb	r3,-8(fp)
 2000234:	e0bfff05 	stb	r2,-4(fp)
    bool bSuccess = TRUE;
 2000238:	00800044 	movi	r2,1
 200023c:	e0bffa15 	stw	r2,-24(fp)
    //alt_u8 DeviceAddr;
    
    // device id
    //DeviceAddr = HMB_E2_I2C_ID;

    i2c_start(clk_base, data_base);
 2000240:	e13ffb17 	ldw	r4,-20(fp)
 2000244:	e17ffc17 	ldw	r5,-16(fp)
 2000248:	20006480 	call	2000648 <i2c_start>
    if (!i2c_write(clk_base, data_base, DeviceAddr)){  // send ID
 200024c:	e0bffd03 	ldbu	r2,-12(fp)
 2000250:	10803fcc 	andi	r2,r2,255
 2000254:	e13ffb17 	ldw	r4,-20(fp)
 2000258:	e17ffc17 	ldw	r5,-16(fp)
 200025c:	100d883a 	mov	r6,r2
 2000260:	20007440 	call	2000744 <i2c_write>
 2000264:	1000011e 	bne	r2,zero,200026c <I2C_Write+0x64>
        bSuccess = FALSE;
 2000268:	e03ffa15 	stw	zero,-24(fp)
        I2C_DEBUG(("I2C HMB_E2 Fail: Address NACK!\n"));
    }
    if (bSuccess && !i2c_write(clk_base, data_base, ControlAddr)){ // send sub-address
 200026c:	e0bffa17 	ldw	r2,-24(fp)
 2000270:	10000726 	beq	r2,zero,2000290 <I2C_Write+0x88>
 2000274:	e0bffe03 	ldbu	r2,-8(fp)
 2000278:	e13ffb17 	ldw	r4,-20(fp)
 200027c:	e17ffc17 	ldw	r5,-16(fp)
 2000280:	100d883a 	mov	r6,r2
 2000284:	20007440 	call	2000744 <i2c_write>
 2000288:	1000011e 	bne	r2,zero,2000290 <I2C_Write+0x88>
        bSuccess = FALSE;
 200028c:	e03ffa15 	stw	zero,-24(fp)
        I2C_DEBUG(("I2C HMB_E2 Fail: SubAddress NACK!\n"));
    }            
    if (bSuccess && !i2c_write(clk_base, data_base, ControlData)){  
 2000290:	e0bffa17 	ldw	r2,-24(fp)
 2000294:	10000726 	beq	r2,zero,20002b4 <I2C_Write+0xac>
 2000298:	e0bfff03 	ldbu	r2,-4(fp)
 200029c:	e13ffb17 	ldw	r4,-20(fp)
 20002a0:	e17ffc17 	ldw	r5,-16(fp)
 20002a4:	100d883a 	mov	r6,r2
 20002a8:	20007440 	call	2000744 <i2c_write>
 20002ac:	1000011e 	bne	r2,zero,20002b4 <I2C_Write+0xac>
        bSuccess = FALSE;
 20002b0:	e03ffa15 	stw	zero,-24(fp)
        I2C_DEBUG(("I2C HMB_E2 Fail: write NACK!\n"));
    }
    i2c_stop(clk_base, data_base);
 20002b4:	e13ffb17 	ldw	r4,-20(fp)
 20002b8:	e17ffc17 	ldw	r5,-16(fp)
 20002bc:	20006d00 	call	20006d0 <i2c_stop>
    
    usleep(7*1000); // delay to wait EE2 ready (at least 5 ms delay is required)
 20002c0:	0106d604 	movi	r4,7000
 20002c4:	2018e0c0 	call	2018e0c <usleep>
    
    return bSuccess;
 20002c8:	e0bffa17 	ldw	r2,-24(fp)

    
}
 20002cc:	e037883a 	mov	sp,fp
 20002d0:	dfc00117 	ldw	ra,4(sp)
 20002d4:	df000017 	ldw	fp,0(sp)
 20002d8:	dec00204 	addi	sp,sp,8
 20002dc:	f800283a 	ret

020002e0 <I2C_Read>:

bool I2C_Read(alt_u32 clk_base, alt_u32 data_base, alt_8 DeviceAddr, alt_u8 ControlAddr, alt_u8 *pControlData){
 20002e0:	defff904 	addi	sp,sp,-28
 20002e4:	dfc00615 	stw	ra,24(sp)
 20002e8:	df000515 	stw	fp,20(sp)
 20002ec:	df000504 	addi	fp,sp,20
 20002f0:	e13ffc15 	stw	r4,-16(fp)
 20002f4:	e17ffd15 	stw	r5,-12(fp)
 20002f8:	3007883a 	mov	r3,r6
 20002fc:	3805883a 	mov	r2,r7
 2000300:	e0fffe05 	stb	r3,-8(fp)
 2000304:	e0bfff05 	stb	r2,-4(fp)
    bool bSuccess = TRUE;
 2000308:	00800044 	movi	r2,1
 200030c:	e0bffb15 	stw	r2,-20(fp)
    //alt_u8 DeviceAddr;
   
    // device id
    //DeviceAddr = HMB_E2_I2C_ID;

    i2c_start(clk_base, data_base);
 2000310:	e13ffc17 	ldw	r4,-16(fp)
 2000314:	e17ffd17 	ldw	r5,-12(fp)
 2000318:	20006480 	call	2000648 <i2c_start>
    if (!i2c_write(clk_base, data_base, DeviceAddr)){  // send ID
 200031c:	e0bffe03 	ldbu	r2,-8(fp)
 2000320:	10803fcc 	andi	r2,r2,255
 2000324:	e13ffc17 	ldw	r4,-16(fp)
 2000328:	e17ffd17 	ldw	r5,-12(fp)
 200032c:	100d883a 	mov	r6,r2
 2000330:	20007440 	call	2000744 <i2c_write>
 2000334:	1000011e 	bne	r2,zero,200033c <I2C_Read+0x5c>
        bSuccess = FALSE;
 2000338:	e03ffb15 	stw	zero,-20(fp)
        I2C_DEBUG(("I2C HMB_E2 Fail: Address NACK!\n"));
    }
    if (bSuccess && !i2c_write(clk_base, data_base, ControlAddr)){ // send sub-address
 200033c:	e0bffb17 	ldw	r2,-20(fp)
 2000340:	10000726 	beq	r2,zero,2000360 <I2C_Read+0x80>
 2000344:	e0bfff03 	ldbu	r2,-4(fp)
 2000348:	e13ffc17 	ldw	r4,-16(fp)
 200034c:	e17ffd17 	ldw	r5,-12(fp)
 2000350:	100d883a 	mov	r6,r2
 2000354:	20007440 	call	2000744 <i2c_write>
 2000358:	1000011e 	bne	r2,zero,2000360 <I2C_Read+0x80>
        bSuccess = FALSE;
 200035c:	e03ffb15 	stw	zero,-20(fp)
        I2C_DEBUG(("I2C HMB_E2 Fail: SubAddress NACK!\n"));
    }            
    i2c_start(clk_base, data_base);  // restart
 2000360:	e13ffc17 	ldw	r4,-16(fp)
 2000364:	e17ffd17 	ldw	r5,-12(fp)
 2000368:	20006480 	call	2000648 <i2c_start>
    DeviceAddr |= 1; // Read
 200036c:	e0bffe03 	ldbu	r2,-8(fp)
 2000370:	10800054 	ori	r2,r2,1
 2000374:	e0bffe05 	stb	r2,-8(fp)
    if (bSuccess && !i2c_write(clk_base, data_base, DeviceAddr)){  // send id
 2000378:	e0bffb17 	ldw	r2,-20(fp)
 200037c:	10000826 	beq	r2,zero,20003a0 <I2C_Read+0xc0>
 2000380:	e0bffe03 	ldbu	r2,-8(fp)
 2000384:	10803fcc 	andi	r2,r2,255
 2000388:	e13ffc17 	ldw	r4,-16(fp)
 200038c:	e17ffd17 	ldw	r5,-12(fp)
 2000390:	100d883a 	mov	r6,r2
 2000394:	20007440 	call	2000744 <i2c_write>
 2000398:	1000011e 	bne	r2,zero,20003a0 <I2C_Read+0xc0>
        bSuccess = FALSE;
 200039c:	e03ffb15 	stw	zero,-20(fp)
        I2C_DEBUG(("I2C HMB_E2 Fail: Address+1 NACK!\n"));
    }
    
    if (bSuccess){
 20003a0:	e0bffb17 	ldw	r2,-20(fp)
 20003a4:	10000526 	beq	r2,zero,20003bc <I2C_Read+0xdc>
        i2c_read(clk_base, data_base, pControlData, FALSE);  // read
 20003a8:	e13ffc17 	ldw	r4,-16(fp)
 20003ac:	e17ffd17 	ldw	r5,-12(fp)
 20003b0:	e1800217 	ldw	r6,8(fp)
 20003b4:	000f883a 	mov	r7,zero
 20003b8:	20008740 	call	2000874 <i2c_read>
    }        
    i2c_stop(clk_base, data_base);
 20003bc:	e13ffc17 	ldw	r4,-16(fp)
 20003c0:	e17ffd17 	ldw	r5,-12(fp)
 20003c4:	20006d00 	call	20006d0 <i2c_stop>
    
    return bSuccess;
 20003c8:	e0bffb17 	ldw	r2,-20(fp)
}
 20003cc:	e037883a 	mov	sp,fp
 20003d0:	dfc00117 	ldw	ra,4(sp)
 20003d4:	df000017 	ldw	fp,0(sp)
 20003d8:	dec00204 	addi	sp,sp,8
 20003dc:	f800283a 	ret

020003e0 <I2C_MultipleWrite>:


bool I2C_MultipleWrite(alt_u32 clk_base, alt_u32 data_base, alt_8 DeviceAddr, alt_u8 ControlAddr, alt_u8 *pData, alt_u16 len){
 20003e0:	defff704 	addi	sp,sp,-36
 20003e4:	dfc00815 	stw	ra,32(sp)
 20003e8:	df000715 	stw	fp,28(sp)
 20003ec:	df000704 	addi	fp,sp,28
 20003f0:	e13ffb15 	stw	r4,-20(fp)
 20003f4:	e17ffc15 	stw	r5,-16(fp)
 20003f8:	3009883a 	mov	r4,r6
 20003fc:	3807883a 	mov	r3,r7
 2000400:	e0800317 	ldw	r2,12(fp)
 2000404:	e13ffd05 	stb	r4,-12(fp)
 2000408:	e0fffe05 	stb	r3,-8(fp)
 200040c:	e0bfff0d 	sth	r2,-4(fp)
    bool bSuccess = TRUE;
 2000410:	00800044 	movi	r2,1
 2000414:	e0bff915 	stw	r2,-28(fp)
    int i;

    i2c_start(clk_base, data_base);
 2000418:	e13ffb17 	ldw	r4,-20(fp)
 200041c:	e17ffc17 	ldw	r5,-16(fp)
 2000420:	20006480 	call	2000648 <i2c_start>
    if (!i2c_write(clk_base, data_base, DeviceAddr)){  // send ID
 2000424:	e0bffd03 	ldbu	r2,-12(fp)
 2000428:	10803fcc 	andi	r2,r2,255
 200042c:	e13ffb17 	ldw	r4,-20(fp)
 2000430:	e17ffc17 	ldw	r5,-16(fp)
 2000434:	100d883a 	mov	r6,r2
 2000438:	20007440 	call	2000744 <i2c_write>
 200043c:	1000011e 	bne	r2,zero,2000444 <I2C_MultipleWrite+0x64>
        bSuccess = FALSE;
 2000440:	e03ff915 	stw	zero,-28(fp)
        I2C_DEBUG(("I2C HMB_E2 Fail: Address NACK!\n"));
    }
    if (bSuccess && !i2c_write(clk_base, data_base, ControlAddr)){ // send sub-address
 2000444:	e0bff917 	ldw	r2,-28(fp)
 2000448:	10000726 	beq	r2,zero,2000468 <I2C_MultipleWrite+0x88>
 200044c:	e0bffe03 	ldbu	r2,-8(fp)
 2000450:	e13ffb17 	ldw	r4,-20(fp)
 2000454:	e17ffc17 	ldw	r5,-16(fp)
 2000458:	100d883a 	mov	r6,r2
 200045c:	20007440 	call	2000744 <i2c_write>
 2000460:	1000011e 	bne	r2,zero,2000468 <I2C_MultipleWrite+0x88>
        bSuccess = FALSE;
 2000464:	e03ff915 	stw	zero,-28(fp)
        I2C_DEBUG(("I2C HMB_E2 Fail: SubAddress NACK!\n"));
    }            
    if (bSuccess){
 2000468:	e0bff917 	ldw	r2,-28(fp)
 200046c:	10001526 	beq	r2,zero,20004c4 <I2C_MultipleWrite+0xe4>
        for(i=0;i<len && bSuccess;i++){
 2000470:	e03ffa15 	stw	zero,-24(fp)
 2000474:	00000e06 	br	20004b0 <I2C_MultipleWrite+0xd0>
            bSuccess = i2c_write(clk_base, data_base, *pData);
 2000478:	e0800217 	ldw	r2,8(fp)
 200047c:	10800003 	ldbu	r2,0(r2)
 2000480:	10803fcc 	andi	r2,r2,255
 2000484:	e13ffb17 	ldw	r4,-20(fp)
 2000488:	e17ffc17 	ldw	r5,-16(fp)
 200048c:	100d883a 	mov	r6,r2
 2000490:	20007440 	call	2000744 <i2c_write>
 2000494:	e0bff915 	stw	r2,-28(fp)
            pData++;
 2000498:	e0800217 	ldw	r2,8(fp)
 200049c:	10800044 	addi	r2,r2,1
 20004a0:	e0800215 	stw	r2,8(fp)
    if (bSuccess && !i2c_write(clk_base, data_base, ControlAddr)){ // send sub-address
        bSuccess = FALSE;
        I2C_DEBUG(("I2C HMB_E2 Fail: SubAddress NACK!\n"));
    }            
    if (bSuccess){
        for(i=0;i<len && bSuccess;i++){
 20004a4:	e0bffa17 	ldw	r2,-24(fp)
 20004a8:	10800044 	addi	r2,r2,1
 20004ac:	e0bffa15 	stw	r2,-24(fp)
 20004b0:	e0bfff0b 	ldhu	r2,-4(fp)
 20004b4:	e0fffa17 	ldw	r3,-24(fp)
 20004b8:	1880020e 	bge	r3,r2,20004c4 <I2C_MultipleWrite+0xe4>
 20004bc:	e0bff917 	ldw	r2,-28(fp)
 20004c0:	103fed1e 	bne	r2,zero,2000478 <I2C_MultipleWrite+0x98>
            pData++;
        }
        if (!bSuccess)         
            I2C_DEBUG(("I2C HMB_E2 Fail: write NACK!\n"));
    }
    i2c_stop(clk_base, data_base);
 20004c4:	e13ffb17 	ldw	r4,-20(fp)
 20004c8:	e17ffc17 	ldw	r5,-16(fp)
 20004cc:	20006d00 	call	20006d0 <i2c_stop>
    
    usleep(7*1000); // delay to wait EE2 ready (at least 5 ms delay is required)
 20004d0:	0106d604 	movi	r4,7000
 20004d4:	2018e0c0 	call	2018e0c <usleep>
    
    return bSuccess;
 20004d8:	e0bff917 	ldw	r2,-28(fp)

    
}
 20004dc:	e037883a 	mov	sp,fp
 20004e0:	dfc00117 	ldw	ra,4(sp)
 20004e4:	df000017 	ldw	fp,0(sp)
 20004e8:	dec00204 	addi	sp,sp,8
 20004ec:	f800283a 	ret

020004f0 <I2C_MultipleRead>:

bool I2C_MultipleRead(alt_u32 clk_base, alt_u32 data_base, alt_8 DeviceAddr, alt_u8 ControlAddr, alt_u8 *pBuf, alt_u16 len){
 20004f0:	defff704 	addi	sp,sp,-36
 20004f4:	dfc00815 	stw	ra,32(sp)
 20004f8:	df000715 	stw	fp,28(sp)
 20004fc:	df000704 	addi	fp,sp,28
 2000500:	e13ffb15 	stw	r4,-20(fp)
 2000504:	e17ffc15 	stw	r5,-16(fp)
 2000508:	3009883a 	mov	r4,r6
 200050c:	3807883a 	mov	r3,r7
 2000510:	e0800317 	ldw	r2,12(fp)
 2000514:	e13ffd05 	stb	r4,-12(fp)
 2000518:	e0fffe05 	stb	r3,-8(fp)
 200051c:	e0bfff0d 	sth	r2,-4(fp)
    int i;
    bool bSuccess = TRUE;
 2000520:	00800044 	movi	r2,1
 2000524:	e0bffa15 	stw	r2,-24(fp)
    
   
    // device id
    //DeviceAddr = HMB_E2_I2C_ID;

    i2c_start(clk_base, data_base);
 2000528:	e13ffb17 	ldw	r4,-20(fp)
 200052c:	e17ffc17 	ldw	r5,-16(fp)
 2000530:	20006480 	call	2000648 <i2c_start>
    if (!i2c_write(clk_base, data_base, DeviceAddr)){  // send ID
 2000534:	e0bffd03 	ldbu	r2,-12(fp)
 2000538:	10803fcc 	andi	r2,r2,255
 200053c:	e13ffb17 	ldw	r4,-20(fp)
 2000540:	e17ffc17 	ldw	r5,-16(fp)
 2000544:	100d883a 	mov	r6,r2
 2000548:	20007440 	call	2000744 <i2c_write>
 200054c:	1000011e 	bne	r2,zero,2000554 <I2C_MultipleRead+0x64>
        bSuccess = FALSE;
 2000550:	e03ffa15 	stw	zero,-24(fp)
        I2C_DEBUG(("I2C HMB_E2 Fail: Address NACK!\n"));
    }
    if (bSuccess && !i2c_write(clk_base, data_base, ControlAddr)){ // send sub-address
 2000554:	e0bffa17 	ldw	r2,-24(fp)
 2000558:	10000726 	beq	r2,zero,2000578 <I2C_MultipleRead+0x88>
 200055c:	e0bffe03 	ldbu	r2,-8(fp)
 2000560:	e13ffb17 	ldw	r4,-20(fp)
 2000564:	e17ffc17 	ldw	r5,-16(fp)
 2000568:	100d883a 	mov	r6,r2
 200056c:	20007440 	call	2000744 <i2c_write>
 2000570:	1000011e 	bne	r2,zero,2000578 <I2C_MultipleRead+0x88>
        bSuccess = FALSE;
 2000574:	e03ffa15 	stw	zero,-24(fp)
        I2C_DEBUG(("I2C HMB_E2 Fail: SubAddress NACK!\n"));
    }    
    if (bSuccess)        
 2000578:	e0bffa17 	ldw	r2,-24(fp)
 200057c:	10000326 	beq	r2,zero,200058c <I2C_MultipleRead+0x9c>
        i2c_start(clk_base, data_base);  // restart
 2000580:	e13ffb17 	ldw	r4,-20(fp)
 2000584:	e17ffc17 	ldw	r5,-16(fp)
 2000588:	20006480 	call	2000648 <i2c_start>
    DeviceAddr |= 1; // Read
 200058c:	e0bffd03 	ldbu	r2,-12(fp)
 2000590:	10800054 	ori	r2,r2,1
 2000594:	e0bffd05 	stb	r2,-12(fp)
    if (bSuccess && !i2c_write(clk_base, data_base, DeviceAddr)){  // send id
 2000598:	e0bffa17 	ldw	r2,-24(fp)
 200059c:	10000826 	beq	r2,zero,20005c0 <I2C_MultipleRead+0xd0>
 20005a0:	e0bffd03 	ldbu	r2,-12(fp)
 20005a4:	10803fcc 	andi	r2,r2,255
 20005a8:	e13ffb17 	ldw	r4,-20(fp)
 20005ac:	e17ffc17 	ldw	r5,-16(fp)
 20005b0:	100d883a 	mov	r6,r2
 20005b4:	20007440 	call	2000744 <i2c_write>
 20005b8:	1000011e 	bne	r2,zero,20005c0 <I2C_MultipleRead+0xd0>
        bSuccess = FALSE;
 20005bc:	e03ffa15 	stw	zero,-24(fp)
        I2C_DEBUG(("I2C HMB_E2 Fail: Address+1 NACK!\n"));
    }
    
    if (bSuccess){
 20005c0:	e0bffa17 	ldw	r2,-24(fp)
 20005c4:	10001726 	beq	r2,zero,2000624 <I2C_MultipleRead+0x134>
        for(i=0;i<len && bSuccess;i++){
 20005c8:	e03ff915 	stw	zero,-28(fp)
 20005cc:	00001006 	br	2000610 <I2C_MultipleRead+0x120>
            i2c_read(clk_base, data_base, pBuf, (i==(len-1))?FALSE:TRUE);  // read
 20005d0:	e0bfff0b 	ldhu	r2,-4(fp)
 20005d4:	10ffffc4 	addi	r3,r2,-1
 20005d8:	e0bff917 	ldw	r2,-28(fp)
 20005dc:	1884c03a 	cmpne	r2,r3,r2
 20005e0:	10803fcc 	andi	r2,r2,255
 20005e4:	e13ffb17 	ldw	r4,-20(fp)
 20005e8:	e17ffc17 	ldw	r5,-16(fp)
 20005ec:	e1800217 	ldw	r6,8(fp)
 20005f0:	100f883a 	mov	r7,r2
 20005f4:	20008740 	call	2000874 <i2c_read>
            pBuf++;
 20005f8:	e0800217 	ldw	r2,8(fp)
 20005fc:	10800044 	addi	r2,r2,1
 2000600:	e0800215 	stw	r2,8(fp)
        bSuccess = FALSE;
        I2C_DEBUG(("I2C HMB_E2 Fail: Address+1 NACK!\n"));
    }
    
    if (bSuccess){
        for(i=0;i<len && bSuccess;i++){
 2000604:	e0bff917 	ldw	r2,-28(fp)
 2000608:	10800044 	addi	r2,r2,1
 200060c:	e0bff915 	stw	r2,-28(fp)
 2000610:	e0bfff0b 	ldhu	r2,-4(fp)
 2000614:	e0fff917 	ldw	r3,-28(fp)
 2000618:	1880020e 	bge	r3,r2,2000624 <I2C_MultipleRead+0x134>
 200061c:	e0bffa17 	ldw	r2,-24(fp)
 2000620:	103feb1e 	bne	r2,zero,20005d0 <I2C_MultipleRead+0xe0>
            i2c_read(clk_base, data_base, pBuf, (i==(len-1))?FALSE:TRUE);  // read
            pBuf++;
        }            
    }        
    i2c_stop(clk_base, data_base);
 2000624:	e13ffb17 	ldw	r4,-20(fp)
 2000628:	e17ffc17 	ldw	r5,-16(fp)
 200062c:	20006d00 	call	20006d0 <i2c_stop>
    
    return bSuccess;    
 2000630:	e0bffa17 	ldw	r2,-24(fp)
    
}
 2000634:	e037883a 	mov	sp,fp
 2000638:	dfc00117 	ldw	ra,4(sp)
 200063c:	df000017 	ldw	fp,0(sp)
 2000640:	dec00204 	addi	sp,sp,8
 2000644:	f800283a 	ret

02000648 <i2c_start>:
///////////// Interncal function (i2cXXX) body //////////////////////////////////////////////
/////////////////////////////////////////////////////////////////////////////////////////////


//SDA 1->0 while SCL=1
void i2c_start(alt_u32 clk_base, alt_u32 data_base){
 2000648:	defffc04 	addi	sp,sp,-16
 200064c:	dfc00315 	stw	ra,12(sp)
 2000650:	df000215 	stw	fp,8(sp)
 2000654:	df000204 	addi	fp,sp,8
 2000658:	e13ffe15 	stw	r4,-8(fp)
 200065c:	e17fff15 	stw	r5,-4(fp)
    
    // make sure it is in normal state
    SDA_DIR_OUT(data_base);  // data output enabled
 2000660:	e0bfff17 	ldw	r2,-4(fp)
 2000664:	10800104 	addi	r2,r2,4
 2000668:	1007883a 	mov	r3,r2
 200066c:	00800044 	movi	r2,1
 2000670:	18800035 	stwio	r2,0(r3)
    
    
    
    // start condition
    SDA_HIGH(data_base); // data high
 2000674:	e0bfff17 	ldw	r2,-4(fp)
 2000678:	00c00044 	movi	r3,1
 200067c:	10c00035 	stwio	r3,0(r2)
    SCL_HIGH(clk_base);
 2000680:	e0bffe17 	ldw	r2,-8(fp)
 2000684:	00c00044 	movi	r3,1
 2000688:	10c00035 	stwio	r3,0(r2)
    SCL_DELAY;
 200068c:	01000044 	movi	r4,1
 2000690:	2018e0c0 	call	2018e0c <usleep>
     
    SDA_LOW(data_base); // data low
 2000694:	e0bfff17 	ldw	r2,-4(fp)
 2000698:	0007883a 	mov	r3,zero
 200069c:	10c00035 	stwio	r3,0(r2)
    SCL_DELAY; 
 20006a0:	01000044 	movi	r4,1
 20006a4:	2018e0c0 	call	2018e0c <usleep>
    SCL_LOW(clk_base); // clock low
 20006a8:	e0bffe17 	ldw	r2,-8(fp)
 20006ac:	0007883a 	mov	r3,zero
 20006b0:	10c00035 	stwio	r3,0(r2)
    SCL_DELAY;
 20006b4:	01000044 	movi	r4,1
 20006b8:	2018e0c0 	call	2018e0c <usleep>
}
 20006bc:	e037883a 	mov	sp,fp
 20006c0:	dfc00117 	ldw	ra,4(sp)
 20006c4:	df000017 	ldw	fp,0(sp)
 20006c8:	dec00204 	addi	sp,sp,8
 20006cc:	f800283a 	ret

020006d0 <i2c_stop>:

// SDA 0->1 while SCL=1
void i2c_stop(alt_u32 clk_base, alt_u32 data_base){
 20006d0:	defffc04 	addi	sp,sp,-16
 20006d4:	dfc00315 	stw	ra,12(sp)
 20006d8:	df000215 	stw	fp,8(sp)
 20006dc:	df000204 	addi	fp,sp,8
 20006e0:	e13ffe15 	stw	r4,-8(fp)
 20006e4:	e17fff15 	stw	r5,-4(fp)
    // assume SCL = 0
    
    SDA_DIR_OUT(data_base);  // data output enabled
 20006e8:	e0bfff17 	ldw	r2,-4(fp)
 20006ec:	10800104 	addi	r2,r2,4
 20006f0:	1007883a 	mov	r3,r2
 20006f4:	00800044 	movi	r2,1
 20006f8:	18800035 	stwio	r2,0(r3)
    SDA_LOW(data_base); // Data Low
 20006fc:	e0bfff17 	ldw	r2,-4(fp)
 2000700:	0007883a 	mov	r3,zero
 2000704:	10c00035 	stwio	r3,0(r2)
    //SCL_DELAY; 
    SCL_HIGH(clk_base);  // clock high
 2000708:	e0bffe17 	ldw	r2,-8(fp)
 200070c:	00c00044 	movi	r3,1
 2000710:	10c00035 	stwio	r3,0(r2)
    SCL_DELAY; // clock high long delay
 2000714:	01000044 	movi	r4,1
 2000718:	2018e0c0 	call	2018e0c <usleep>
    SDA_HIGH(data_base); // data high
 200071c:	e0bfff17 	ldw	r2,-4(fp)
 2000720:	00c00044 	movi	r3,1
 2000724:	10c00035 	stwio	r3,0(r2)
    SCL_DELAY; // data high delay
 2000728:	01000044 	movi	r4,1
 200072c:	2018e0c0 	call	2018e0c <usleep>
    

    
}
 2000730:	e037883a 	mov	sp,fp
 2000734:	dfc00117 	ldw	ra,4(sp)
 2000738:	df000017 	ldw	fp,0(sp)
 200073c:	dec00204 	addi	sp,sp,8
 2000740:	f800283a 	ret

02000744 <i2c_write>:

bool i2c_write(alt_u32 clk_base, alt_u32 data_base, alt_u8 Data){ // return true if device response ack
 2000744:	defff804 	addi	sp,sp,-32
 2000748:	dfc00715 	stw	ra,28(sp)
 200074c:	df000615 	stw	fp,24(sp)
 2000750:	df000604 	addi	fp,sp,24
 2000754:	e13ffd15 	stw	r4,-12(fp)
 2000758:	e17ffe15 	stw	r5,-8(fp)
 200075c:	3005883a 	mov	r2,r6
 2000760:	e0bfff05 	stb	r2,-4(fp)
    alt_u8 Mask = 0x80;
 2000764:	00bfe004 	movi	r2,-128
 2000768:	e0bffa05 	stb	r2,-24(fp)
    bool bAck;
    int i;
    
    // assume, SCL = 0
    
    SDA_DIR_OUT(data_base);  // data write mode
 200076c:	e0bffe17 	ldw	r2,-8(fp)
 2000770:	10800104 	addi	r2,r2,4
 2000774:	1007883a 	mov	r3,r2
 2000778:	00800044 	movi	r2,1
 200077c:	18800035 	stwio	r2,0(r3)
    
    for(i=0;i<8;i++){
 2000780:	e03ffb15 	stw	zero,-20(fp)
 2000784:	00001f06 	br	2000804 <i2c_write+0xc0>
        SCL_LOW(clk_base);  // new, make sure data change at clk low
 2000788:	e0bffd17 	ldw	r2,-12(fp)
 200078c:	0007883a 	mov	r3,zero
 2000790:	10c00035 	stwio	r3,0(r2)
        // output data on bus
        if (Data & Mask){ // there is a delay in this command
 2000794:	e0ffff03 	ldbu	r3,-4(fp)
 2000798:	e0bffa03 	ldbu	r2,-24(fp)
 200079c:	1884703a 	and	r2,r3,r2
 20007a0:	10803fcc 	andi	r2,r2,255
 20007a4:	10000426 	beq	r2,zero,20007b8 <i2c_write+0x74>
            SDA_HIGH(data_base);
 20007a8:	e0bffe17 	ldw	r2,-8(fp)
 20007ac:	00c00044 	movi	r3,1
 20007b0:	10c00035 	stwio	r3,0(r2)
 20007b4:	00000306 	br	20007c4 <i2c_write+0x80>
        }else{    
            SDA_LOW(data_base);
 20007b8:	e0bffe17 	ldw	r2,-8(fp)
 20007bc:	0007883a 	mov	r3,zero
 20007c0:	10c00035 	stwio	r3,0(r2)
        }
        Mask >>= 1; // there is a delay in this command
 20007c4:	e0bffa03 	ldbu	r2,-24(fp)
 20007c8:	1004d07a 	srli	r2,r2,1
 20007cc:	e0bffa05 	stb	r2,-24(fp)
        // clock high
        SCL_HIGH(clk_base);
 20007d0:	e0bffd17 	ldw	r2,-12(fp)
 20007d4:	00c00044 	movi	r3,1
 20007d8:	10c00035 	stwio	r3,0(r2)
        SCL_DELAY;
 20007dc:	01000044 	movi	r4,1
 20007e0:	2018e0c0 	call	2018e0c <usleep>
        SCL_LOW(clk_base);
 20007e4:	e0bffd17 	ldw	r2,-12(fp)
 20007e8:	0007883a 	mov	r3,zero
 20007ec:	10c00035 	stwio	r3,0(r2)
        SCL_DELAY;
 20007f0:	01000044 	movi	r4,1
 20007f4:	2018e0c0 	call	2018e0c <usleep>
    
    // assume, SCL = 0
    
    SDA_DIR_OUT(data_base);  // data write mode
    
    for(i=0;i<8;i++){
 20007f8:	e0bffb17 	ldw	r2,-20(fp)
 20007fc:	10800044 	addi	r2,r2,1
 2000800:	e0bffb15 	stw	r2,-20(fp)
 2000804:	e0bffb17 	ldw	r2,-20(fp)
 2000808:	10800210 	cmplti	r2,r2,8
 200080c:	103fde1e 	bne	r2,zero,2000788 <i2c_write+0x44>
        SCL_LOW(clk_base);
        SCL_DELAY;
    }
    
    //===== get ack
    SDA_DIR_IN(data_base);  // data read mode
 2000810:	e0bffe17 	ldw	r2,-8(fp)
 2000814:	10800104 	addi	r2,r2,4
 2000818:	0007883a 	mov	r3,zero
 200081c:	10c00035 	stwio	r3,0(r2)
    //SCL_DELAY;
    // clock high
    SCL_HIGH(clk_base);  // clock high
 2000820:	e0bffd17 	ldw	r2,-12(fp)
 2000824:	00c00044 	movi	r3,1
 2000828:	10c00035 	stwio	r3,0(r2)
    SCL_DELAY;  // clock high delay
 200082c:	01000044 	movi	r4,1
 2000830:	2018e0c0 	call	2018e0c <usleep>
    bAck = SDA_READ(data_base)?FALSE:TRUE;  // get ack
 2000834:	e0bffe17 	ldw	r2,-8(fp)
 2000838:	10800037 	ldwio	r2,0(r2)
 200083c:	1005003a 	cmpeq	r2,r2,zero
 2000840:	10803fcc 	andi	r2,r2,255
 2000844:	e0bffc15 	stw	r2,-16(fp)
    //SCL_DELAY;
    //SDA_DIR_OUT;
    SCL_LOW(clk_base); // clock low         
 2000848:	e0bffd17 	ldw	r2,-12(fp)
 200084c:	0007883a 	mov	r3,zero
 2000850:	10c00035 	stwio	r3,0(r2)
    SCL_DELAY; // clock low delay
 2000854:	01000044 	movi	r4,1
 2000858:	2018e0c0 	call	2018e0c <usleep>
    return bAck;
 200085c:	e0bffc17 	ldw	r2,-16(fp)
}    
 2000860:	e037883a 	mov	sp,fp
 2000864:	dfc00117 	ldw	ra,4(sp)
 2000868:	df000017 	ldw	fp,0(sp)
 200086c:	dec00204 	addi	sp,sp,8
 2000870:	f800283a 	ret

02000874 <i2c_read>:

void i2c_read(alt_u32 clk_base, alt_u32 data_base, alt_u8 *pData, bool bAck){ // return true if device response ack
 2000874:	defff804 	addi	sp,sp,-32
 2000878:	dfc00715 	stw	ra,28(sp)
 200087c:	df000615 	stw	fp,24(sp)
 2000880:	df000604 	addi	fp,sp,24
 2000884:	e13ffc15 	stw	r4,-16(fp)
 2000888:	e17ffd15 	stw	r5,-12(fp)
 200088c:	e1bffe15 	stw	r6,-8(fp)
 2000890:	e1ffff15 	stw	r7,-4(fp)
    alt_u8 Data=0;
 2000894:	e03ffa05 	stb	zero,-24(fp)
    int i;
    
    // assume SCL = low
    
    SDA_DIR_IN(data_base);  // set data read mode
 2000898:	e0bffd17 	ldw	r2,-12(fp)
 200089c:	10800104 	addi	r2,r2,4
 20008a0:	0007883a 	mov	r3,zero
 20008a4:	10c00035 	stwio	r3,0(r2)
    SCL_LOW(clk_base); // clock low
 20008a8:	e0bffc17 	ldw	r2,-16(fp)
 20008ac:	0007883a 	mov	r3,zero
 20008b0:	10c00035 	stwio	r3,0(r2)
    SCL_DELAY; // clock low delay
 20008b4:	01000044 	movi	r4,1
 20008b8:	2018e0c0 	call	2018e0c <usleep>

    for(i=0;i<8;i++){
 20008bc:	e03ffb15 	stw	zero,-20(fp)
 20008c0:	00001606 	br	200091c <i2c_read+0xa8>
        Data <<= 1;
 20008c4:	e0bffa03 	ldbu	r2,-24(fp)
 20008c8:	1085883a 	add	r2,r2,r2
 20008cc:	e0bffa05 	stb	r2,-24(fp)
        SCL_HIGH(clk_base);  // clock high
 20008d0:	e0bffc17 	ldw	r2,-16(fp)
 20008d4:	00c00044 	movi	r3,1
 20008d8:	10c00035 	stwio	r3,0(r2)
        SCL_DELAY;
 20008dc:	01000044 	movi	r4,1
 20008e0:	2018e0c0 	call	2018e0c <usleep>
        if (SDA_READ(data_base))  // read data   
 20008e4:	e0bffd17 	ldw	r2,-12(fp)
 20008e8:	10800037 	ldwio	r2,0(r2)
 20008ec:	10000326 	beq	r2,zero,20008fc <i2c_read+0x88>
            Data |= 0x01;
 20008f0:	e0bffa03 	ldbu	r2,-24(fp)
 20008f4:	10800054 	ori	r2,r2,1
 20008f8:	e0bffa05 	stb	r2,-24(fp)
        SCL_LOW(clk_base);  // clock log  
 20008fc:	e0bffc17 	ldw	r2,-16(fp)
 2000900:	0007883a 	mov	r3,zero
 2000904:	10c00035 	stwio	r3,0(r2)
        SCL_DELAY;
 2000908:	01000044 	movi	r4,1
 200090c:	2018e0c0 	call	2018e0c <usleep>
    
    SDA_DIR_IN(data_base);  // set data read mode
    SCL_LOW(clk_base); // clock low
    SCL_DELAY; // clock low delay

    for(i=0;i<8;i++){
 2000910:	e0bffb17 	ldw	r2,-20(fp)
 2000914:	10800044 	addi	r2,r2,1
 2000918:	e0bffb15 	stw	r2,-20(fp)
 200091c:	e0bffb17 	ldw	r2,-20(fp)
 2000920:	10800210 	cmplti	r2,r2,8
 2000924:	103fe71e 	bne	r2,zero,20008c4 <i2c_read+0x50>
        SCL_LOW(clk_base);  // clock log  
        SCL_DELAY;
    }
    
    // send ACK
    SCL_LOW(clk_base);  // new, make sure data change at clk low
 2000928:	e0bffc17 	ldw	r2,-16(fp)
 200092c:	0007883a 	mov	r3,zero
 2000930:	10c00035 	stwio	r3,0(r2)
    SDA_DIR_OUT(data_base);  // set data write mode
 2000934:	e0bffd17 	ldw	r2,-12(fp)
 2000938:	10800104 	addi	r2,r2,4
 200093c:	1007883a 	mov	r3,r2
 2000940:	00800044 	movi	r2,1
 2000944:	18800035 	stwio	r2,0(r3)
    if (bAck)
 2000948:	e0bfff17 	ldw	r2,-4(fp)
 200094c:	10000426 	beq	r2,zero,2000960 <i2c_read+0xec>
        SDA_LOW(data_base);
 2000950:	e0bffd17 	ldw	r2,-12(fp)
 2000954:	0007883a 	mov	r3,zero
 2000958:	10c00035 	stwio	r3,0(r2)
 200095c:	00000306 	br	200096c <i2c_read+0xf8>
    else
        SDA_HIGH(data_base);
 2000960:	e0bffd17 	ldw	r2,-12(fp)
 2000964:	00c00044 	movi	r3,1
 2000968:	10c00035 	stwio	r3,0(r2)
    SCL_HIGH(clk_base); // clock high
 200096c:	e0bffc17 	ldw	r2,-16(fp)
 2000970:	00c00044 	movi	r3,1
 2000974:	10c00035 	stwio	r3,0(r2)
    SCL_DELAY; // clock high  delay
 2000978:	01000044 	movi	r4,1
 200097c:	2018e0c0 	call	2018e0c <usleep>
    SCL_LOW(clk_base); // clock low
 2000980:	e0bffc17 	ldw	r2,-16(fp)
 2000984:	0007883a 	mov	r3,zero
 2000988:	10c00035 	stwio	r3,0(r2)
    SCL_DELAY; // clock low delay
 200098c:	01000044 	movi	r4,1
 2000990:	2018e0c0 	call	2018e0c <usleep>
    SDA_LOW(data_base);  // data low
 2000994:	e0bffd17 	ldw	r2,-12(fp)
 2000998:	0007883a 	mov	r3,zero
 200099c:	10c00035 	stwio	r3,0(r2)
    SCL_DELAY; // data low delay
 20009a0:	01000044 	movi	r4,1
 20009a4:	2018e0c0 	call	2018e0c <usleep>
//    SDA_DIR_IN;  // set data read mode
    
    *pData = Data;
 20009a8:	e0bffe17 	ldw	r2,-8(fp)
 20009ac:	e0fffa03 	ldbu	r3,-24(fp)
 20009b0:	10c00005 	stb	r3,0(r2)
}
 20009b4:	e037883a 	mov	sp,fp
 20009b8:	dfc00117 	ldw	ra,4(sp)
 20009bc:	df000017 	ldw	fp,0(sp)
 20009c0:	dec00204 	addi	sp,sp,8
 20009c4:	f800283a 	ret

020009c8 <i2c_data_verify>:

//==========================================================
// function for verify

bool i2c_data_verify(alt_u32 scl_base, alt_u32 sda_base, alt_u8 ControlAddr){
 20009c8:	defff804 	addi	sp,sp,-32
 20009cc:	dfc00715 	stw	ra,28(sp)
 20009d0:	df000615 	stw	fp,24(sp)
 20009d4:	df000604 	addi	fp,sp,24
 20009d8:	e13ffd15 	stw	r4,-12(fp)
 20009dc:	e17ffe15 	stw	r5,-8(fp)
 20009e0:	3005883a 	mov	r2,r6
 20009e4:	e0bfff05 	stb	r2,-4(fp)
    bool bPass;
    const alt_8 DeviceAddr = 0xA0;
 20009e8:	00bfe804 	movi	r2,-96
 20009ec:	e0bffc45 	stb	r2,-15(fp)
 * alt_nticks() returns the elapsed number of system clock ticks since reset.
 */

static ALT_INLINE alt_u32 ALT_ALWAYS_INLINE alt_nticks (void)
{
  return _alt_nticks;
 20009f0:	00808134 	movhi	r2,516
 20009f4:	10947604 	addi	r2,r2,20952
 20009f8:	10800017 	ldw	r2,0(r2)
    alt_u8 OrgData, TestData, Data;
    
    TestData = alt_nticks();
 20009fc:	e0bffc05 	stb	r2,-16(fp)
    if (TestData == 0)
 2000a00:	e0bffc03 	ldbu	r2,-16(fp)
 2000a04:	1000021e 	bne	r2,zero,2000a10 <i2c_data_verify+0x48>
        TestData = 0x12;
 2000a08:	00800484 	movi	r2,18
 2000a0c:	e0bffc05 	stb	r2,-16(fp)
    
    bPass = I2C_Read(scl_base, sda_base, DeviceAddr, ControlAddr, &OrgData);
 2000a10:	e1bffc47 	ldb	r6,-15(fp)
 2000a14:	e0ffff03 	ldbu	r3,-4(fp)
 2000a18:	e0bffc84 	addi	r2,fp,-14
 2000a1c:	d8800015 	stw	r2,0(sp)
 2000a20:	e13ffd17 	ldw	r4,-12(fp)
 2000a24:	e17ffe17 	ldw	r5,-8(fp)
 2000a28:	180f883a 	mov	r7,r3
 2000a2c:	20002e00 	call	20002e0 <I2C_Read>
 2000a30:	e0bffb15 	stw	r2,-20(fp)
    if (bPass) // write
 2000a34:	e0bffb17 	ldw	r2,-20(fp)
 2000a38:	10000926 	beq	r2,zero,2000a60 <i2c_data_verify+0x98>
        bPass = I2C_Write(scl_base, sda_base, DeviceAddr, ControlAddr, TestData);
 2000a3c:	e1bffc47 	ldb	r6,-15(fp)
 2000a40:	e0ffff03 	ldbu	r3,-4(fp)
 2000a44:	e0bffc03 	ldbu	r2,-16(fp)
 2000a48:	d8800015 	stw	r2,0(sp)
 2000a4c:	e13ffd17 	ldw	r4,-12(fp)
 2000a50:	e17ffe17 	ldw	r5,-8(fp)
 2000a54:	180f883a 	mov	r7,r3
 2000a58:	20002080 	call	2000208 <I2C_Write>
 2000a5c:	e0bffb15 	stw	r2,-20(fp)
    if (bPass) // read        
 2000a60:	e0bffb17 	ldw	r2,-20(fp)
 2000a64:	10000926 	beq	r2,zero,2000a8c <i2c_data_verify+0xc4>
        bPass = I2C_Read(scl_base, sda_base, DeviceAddr, ControlAddr, &Data);
 2000a68:	e1bffc47 	ldb	r6,-15(fp)
 2000a6c:	e0ffff03 	ldbu	r3,-4(fp)
 2000a70:	e0bffcc4 	addi	r2,fp,-13
 2000a74:	d8800015 	stw	r2,0(sp)
 2000a78:	e13ffd17 	ldw	r4,-12(fp)
 2000a7c:	e17ffe17 	ldw	r5,-8(fp)
 2000a80:	180f883a 	mov	r7,r3
 2000a84:	20002e00 	call	20002e0 <I2C_Read>
 2000a88:	e0bffb15 	stw	r2,-20(fp)
    if (bPass && (Data != TestData)) // verify
 2000a8c:	e0bffb17 	ldw	r2,-20(fp)
 2000a90:	10000526 	beq	r2,zero,2000aa8 <i2c_data_verify+0xe0>
 2000a94:	e0bffcc3 	ldbu	r2,-13(fp)
 2000a98:	10c03fcc 	andi	r3,r2,255
 2000a9c:	e0bffc03 	ldbu	r2,-16(fp)
 2000aa0:	18800126 	beq	r3,r2,2000aa8 <i2c_data_verify+0xe0>
        bPass = FALSE;        
 2000aa4:	e03ffb15 	stw	zero,-20(fp)
    // restore        
    if (bPass) // write back
 2000aa8:	e0bffb17 	ldw	r2,-20(fp)
 2000aac:	10000a26 	beq	r2,zero,2000ad8 <i2c_data_verify+0x110>
        bPass = I2C_Write(scl_base, sda_base, DeviceAddr, ControlAddr, OrgData);
 2000ab0:	e1bffc47 	ldb	r6,-15(fp)
 2000ab4:	e0ffff03 	ldbu	r3,-4(fp)
 2000ab8:	e0bffc83 	ldbu	r2,-14(fp)
 2000abc:	10803fcc 	andi	r2,r2,255
 2000ac0:	d8800015 	stw	r2,0(sp)
 2000ac4:	e13ffd17 	ldw	r4,-12(fp)
 2000ac8:	e17ffe17 	ldw	r5,-8(fp)
 2000acc:	180f883a 	mov	r7,r3
 2000ad0:	20002080 	call	2000208 <I2C_Write>
 2000ad4:	e0bffb15 	stw	r2,-20(fp)
    if (bPass) // read        
 2000ad8:	e0bffb17 	ldw	r2,-20(fp)
 2000adc:	10000926 	beq	r2,zero,2000b04 <i2c_data_verify+0x13c>
        bPass = I2C_Read(scl_base, sda_base, DeviceAddr, ControlAddr, &Data);
 2000ae0:	e1bffc47 	ldb	r6,-15(fp)
 2000ae4:	e0ffff03 	ldbu	r3,-4(fp)
 2000ae8:	e0bffcc4 	addi	r2,fp,-13
 2000aec:	d8800015 	stw	r2,0(sp)
 2000af0:	e13ffd17 	ldw	r4,-12(fp)
 2000af4:	e17ffe17 	ldw	r5,-8(fp)
 2000af8:	180f883a 	mov	r7,r3
 2000afc:	20002e00 	call	20002e0 <I2C_Read>
 2000b00:	e0bffb15 	stw	r2,-20(fp)
    if (bPass && (Data != OrgData)) // verify
 2000b04:	e0bffb17 	ldw	r2,-20(fp)
 2000b08:	10000626 	beq	r2,zero,2000b24 <i2c_data_verify+0x15c>
 2000b0c:	e0fffcc3 	ldbu	r3,-13(fp)
 2000b10:	e0bffc83 	ldbu	r2,-14(fp)
 2000b14:	18c03fcc 	andi	r3,r3,255
 2000b18:	10803fcc 	andi	r2,r2,255
 2000b1c:	18800126 	beq	r3,r2,2000b24 <i2c_data_verify+0x15c>
        bPass = FALSE; 
 2000b20:	e03ffb15 	stw	zero,-20(fp)
        
    return bPass;
 2000b24:	e0bffb17 	ldw	r2,-20(fp)
}
 2000b28:	e037883a 	mov	sp,fp
 2000b2c:	dfc00117 	ldw	ra,4(sp)
 2000b30:	df000017 	ldw	fp,0(sp)
 2000b34:	dec00204 	addi	sp,sp,8
 2000b38:	f800283a 	ret

02000b3c <I2C_Verify>:




bool I2C_Verify(alt_u32 scl_base, alt_u32 sda_base, alt_u32 size){
 2000b3c:	defffa04 	addi	sp,sp,-24
 2000b40:	dfc00515 	stw	ra,20(sp)
 2000b44:	df000415 	stw	fp,16(sp)
 2000b48:	df000404 	addi	fp,sp,16
 2000b4c:	e13ffd15 	stw	r4,-12(fp)
 2000b50:	e17ffe15 	stw	r5,-8(fp)
 2000b54:	e1bfff15 	stw	r6,-4(fp)
    bool bPass;
    if (size <= 256){
 2000b58:	e0bfff17 	ldw	r2,-4(fp)
 2000b5c:	10804068 	cmpgeui	r2,r2,257
 2000b60:	1000101e 	bne	r2,zero,2000ba4 <I2C_Verify+0x68>
        // less or equal to 256 Bytes
        bPass = i2c_data_verify(scl_base, sda_base, 0);
 2000b64:	e13ffd17 	ldw	r4,-12(fp)
 2000b68:	e17ffe17 	ldw	r5,-8(fp)
 2000b6c:	000d883a 	mov	r6,zero
 2000b70:	20009c80 	call	20009c8 <i2c_data_verify>
 2000b74:	e0bffc15 	stw	r2,-16(fp)
        if (bPass)
 2000b78:	e0bffc17 	ldw	r2,-16(fp)
 2000b7c:	10000a26 	beq	r2,zero,2000ba8 <I2C_Verify+0x6c>
            bPass = i2c_data_verify(scl_base, sda_base, size-1);
 2000b80:	e0bfff17 	ldw	r2,-4(fp)
 2000b84:	10bfffc4 	addi	r2,r2,-1
 2000b88:	10803fcc 	andi	r2,r2,255
 2000b8c:	e13ffd17 	ldw	r4,-12(fp)
 2000b90:	e17ffe17 	ldw	r5,-8(fp)
 2000b94:	100d883a 	mov	r6,r2
 2000b98:	20009c80 	call	20009c8 <i2c_data_verify>
 2000b9c:	e0bffc15 	stw	r2,-16(fp)
 2000ba0:	00000106 	br	2000ba8 <I2C_Verify+0x6c>
    }else{
        bPass = FALSE;
 2000ba4:	e03ffc15 	stw	zero,-16(fp)
        bPass = i2cl_data_verify(scl_base, sda_base, 0);
        if (bPass)
            bPass = i2cl_data_verify(scl_base, sda_base, size-1);
            */
    }
    return bPass;
 2000ba8:	e0bffc17 	ldw	r2,-16(fp)
}
 2000bac:	e037883a 	mov	sp,fp
 2000bb0:	dfc00117 	ldw	ra,4(sp)
 2000bb4:	df000017 	ldw	fp,0(sp)
 2000bb8:	dec00204 	addi	sp,sp,8
 2000bbc:	f800283a 	ret

02000bc0 <ADXL345_SPI_Init>:

#define DATA_READY_TIMEOUT  (alt_ticks_per_second()/3)



bool ADXL345_SPI_Init(alt_u32 device_base){
 2000bc0:	defffc04 	addi	sp,sp,-16
 2000bc4:	dfc00315 	stw	ra,12(sp)
 2000bc8:	df000215 	stw	fp,8(sp)
 2000bcc:	df000204 	addi	fp,sp,8
 2000bd0:	e13fff15 	stw	r4,-4(fp)
    bool bSuccess;
    
    // clear fifo
    SPI_Init(device_base);
 2000bd4:	e13fff17 	ldw	r4,-4(fp)
 2000bd8:	2007e600 	call	2007e60 <SPI_Init>
   
    // 3-wire spi
    bSuccess = SPI_Write(device_base, ADXL345_REG_DATA_FORMAT, XL345_SPI3WIRE);
 2000bdc:	e13fff17 	ldw	r4,-4(fp)
 2000be0:	01400c44 	movi	r5,49
 2000be4:	01801004 	movi	r6,64
 2000be8:	2007fd00 	call	2007fd0 <SPI_Write>
 2000bec:	e0bffe15 	stw	r2,-8(fp)
 
    // clear fifo   
    SPI_Init(device_base);
 2000bf0:	e13fff17 	ldw	r4,-4(fp)
 2000bf4:	2007e600 	call	2007e60 <SPI_Init>
        
    //Output Data Rate: 40Hz
    if (bSuccess){
 2000bf8:	e0bffe17 	ldw	r2,-8(fp)
 2000bfc:	10000526 	beq	r2,zero,2000c14 <ADXL345_SPI_Init+0x54>
        bSuccess = SPI_Write(device_base, ADXL345_REG_BW_RATE, XL345_RATE_400); // 400 MHZ
 2000c00:	e13fff17 	ldw	r4,-4(fp)
 2000c04:	01400b04 	movi	r5,44
 2000c08:	01800304 	movi	r6,12
 2000c0c:	2007fd00 	call	2007fd0 <SPI_Write>
 2000c10:	e0bffe15 	stw	r2,-8(fp)
    }
    
            
        
    //INT_Enable: Data Ready
    if (bSuccess){   
 2000c14:	e0bffe17 	ldw	r2,-8(fp)
 2000c18:	10000526 	beq	r2,zero,2000c30 <ADXL345_SPI_Init+0x70>
        bSuccess = SPI_Write(device_base, ADXL345_REG_INT_ENALBE, XL345_DATAREADY);
 2000c1c:	e13fff17 	ldw	r4,-4(fp)
 2000c20:	01400b84 	movi	r5,46
 2000c24:	01802004 	movi	r6,128
 2000c28:	2007fd00 	call	2007fd0 <SPI_Write>
 2000c2c:	e0bffe15 	stw	r2,-8(fp)
    }
    
    // stop measure
    if (bSuccess){
 2000c30:	e0bffe17 	ldw	r2,-8(fp)
 2000c34:	10000526 	beq	r2,zero,2000c4c <ADXL345_SPI_Init+0x8c>
        bSuccess = SPI_Write(device_base, ADXL345_REG_POWER_CTL, XL345_STANDBY);
 2000c38:	e13fff17 	ldw	r4,-4(fp)
 2000c3c:	01400b44 	movi	r5,45
 2000c40:	000d883a 	mov	r6,zero
 2000c44:	2007fd00 	call	2007fd0 <SPI_Write>
 2000c48:	e0bffe15 	stw	r2,-8(fp)
    }

    // start measure
    if (bSuccess){
 2000c4c:	e0bffe17 	ldw	r2,-8(fp)
 2000c50:	10000526 	beq	r2,zero,2000c68 <ADXL345_SPI_Init+0xa8>
        bSuccess = SPI_Write(device_base, ADXL345_REG_POWER_CTL, XL345_MEASURE);
 2000c54:	e13fff17 	ldw	r4,-4(fp)
 2000c58:	01400b44 	movi	r5,45
 2000c5c:	01800204 	movi	r6,8
 2000c60:	2007fd00 	call	2007fd0 <SPI_Write>
 2000c64:	e0bffe15 	stw	r2,-8(fp)
        
    }
    
            
    return bSuccess;    
 2000c68:	e0bffe17 	ldw	r2,-8(fp)
        
}
 2000c6c:	e037883a 	mov	sp,fp
 2000c70:	dfc00117 	ldw	ra,4(sp)
 2000c74:	df000017 	ldw	fp,0(sp)
 2000c78:	dec00204 	addi	sp,sp,8
 2000c7c:	f800283a 	ret

02000c80 <ADXL345_SPI_WaitDataReady>:


    
bool ADXL345_SPI_WaitDataReady(alt_u32 device_base){
 2000c80:	defffa04 	addi	sp,sp,-24
 2000c84:	dfc00515 	stw	ra,20(sp)
 2000c88:	df000415 	stw	fp,16(sp)
 2000c8c:	dc000315 	stw	r16,12(sp)
 2000c90:	df000404 	addi	fp,sp,16
 2000c94:	e13ffe15 	stw	r4,-8(fp)
 2000c98:	00808134 	movhi	r2,516
 2000c9c:	10947604 	addi	r2,r2,20952
 2000ca0:	10800017 	ldw	r2,0(r2)
    bool bDataReady;
    alt_u32 TimeStart;
    
    TimeStart = alt_nticks();
 2000ca4:	e0bffc15 	stw	r2,-16(fp)
    do{
        bDataReady = ADXL345_SPI_IsDataReady(device_base);
 2000ca8:	e13ffe17 	ldw	r4,-8(fp)
 2000cac:	2000d180 	call	2000d18 <ADXL345_SPI_IsDataReady>
 2000cb0:	e0bffd15 	stw	r2,-12(fp)
        if (!bDataReady)
 2000cb4:	e0bffd17 	ldw	r2,-12(fp)
 2000cb8:	1000021e 	bne	r2,zero,2000cc4 <ADXL345_SPI_WaitDataReady+0x44>
            usleep(500); 
 2000cbc:	01007d04 	movi	r4,500
 2000cc0:	2018e0c0 	call	2018e0c <usleep>
    }while (!bDataReady && ( (alt_nticks() - TimeStart) < DATA_READY_TIMEOUT) );
 2000cc4:	e0bffd17 	ldw	r2,-12(fp)
 2000cc8:	10000c1e 	bne	r2,zero,2000cfc <ADXL345_SPI_WaitDataReady+0x7c>
 2000ccc:	00808134 	movhi	r2,516
 2000cd0:	10947604 	addi	r2,r2,20952
 2000cd4:	10c00017 	ldw	r3,0(r2)
 2000cd8:	e0bffc17 	ldw	r2,-16(fp)
 2000cdc:	18a1c83a 	sub	r16,r3,r2
 * Obtain the system clock rate in ticks/s. 
 */

static ALT_INLINE alt_u32 ALT_ALWAYS_INLINE alt_ticks_per_second (void)
{
  return _alt_tick_rate;
 2000ce0:	00808134 	movhi	r2,516
 2000ce4:	10947504 	addi	r2,r2,20948
 2000ce8:	10800017 	ldw	r2,0(r2)
 2000cec:	1009883a 	mov	r4,r2
 2000cf0:	014000c4 	movi	r5,3
 2000cf4:	20087080 	call	2008708 <__udivsi3>
 2000cf8:	80bfeb36 	bltu	r16,r2,2000ca8 <ADXL345_SPI_WaitDataReady+0x28>
    
    return bDataReady;
 2000cfc:	e0bffd17 	ldw	r2,-12(fp)
        
}    
 2000d00:	e6ffff04 	addi	sp,fp,-4
 2000d04:	dfc00217 	ldw	ra,8(sp)
 2000d08:	df000117 	ldw	fp,4(sp)
 2000d0c:	dc000017 	ldw	r16,0(sp)
 2000d10:	dec00304 	addi	sp,sp,12
 2000d14:	f800283a 	ret

02000d18 <ADXL345_SPI_IsDataReady>:

bool ADXL345_SPI_IsDataReady(alt_u32 device_base){
 2000d18:	defffb04 	addi	sp,sp,-20
 2000d1c:	dfc00415 	stw	ra,16(sp)
 2000d20:	df000315 	stw	fp,12(sp)
 2000d24:	df000304 	addi	fp,sp,12
 2000d28:	e13fff15 	stw	r4,-4(fp)
    bool bReady = FALSE;
 2000d2c:	e03ffd15 	stw	zero,-12(fp)
    alt_u8 data8;
    
    if (SPI_Read(device_base, ADXL345_REG_INT_SOURCE,&data8)){
 2000d30:	e0bffe04 	addi	r2,fp,-8
 2000d34:	e13fff17 	ldw	r4,-4(fp)
 2000d38:	01400c04 	movi	r5,48
 2000d3c:	100d883a 	mov	r6,r2
 2000d40:	20081600 	call	2008160 <SPI_Read>
 2000d44:	10000726 	beq	r2,zero,2000d64 <ADXL345_SPI_IsDataReady+0x4c>
        if (data8 & XL345_DATAREADY)
 2000d48:	e0bffe03 	ldbu	r2,-8(fp)
 2000d4c:	10803fcc 	andi	r2,r2,255
 2000d50:	1080201c 	xori	r2,r2,128
 2000d54:	10bfe004 	addi	r2,r2,-128
 2000d58:	1000020e 	bge	r2,zero,2000d64 <ADXL345_SPI_IsDataReady+0x4c>
            bReady = TRUE;
 2000d5c:	00800044 	movi	r2,1
 2000d60:	e0bffd15 	stw	r2,-12(fp)
    }            
    
    return bReady;
 2000d64:	e0bffd17 	ldw	r2,-12(fp)
}
 2000d68:	e037883a 	mov	sp,fp
 2000d6c:	dfc00117 	ldw	ra,4(sp)
 2000d70:	df000017 	ldw	fp,0(sp)
 2000d74:	dec00204 	addi	sp,sp,8
 2000d78:	f800283a 	ret

02000d7c <ADXL345_SPI_XYZ_Read>:



bool ADXL345_SPI_XYZ_Read(alt_u32 device_base, alt_u16 szData16[3]){
 2000d7c:	defff904 	addi	sp,sp,-28
 2000d80:	dfc00615 	stw	ra,24(sp)
 2000d84:	df000515 	stw	fp,20(sp)
 2000d88:	df000504 	addi	fp,sp,20
 2000d8c:	e13ffe15 	stw	r4,-8(fp)
 2000d90:	e17fff15 	stw	r5,-4(fp)
    bool bPass;
    alt_u8 szData8[6];
    bPass = SPI_MultipleRead(device_base, 0x32, (alt_u8 *)&szData8, sizeof(szData8));
 2000d94:	e0bffc04 	addi	r2,fp,-16
 2000d98:	e13ffe17 	ldw	r4,-8(fp)
 2000d9c:	01400c84 	movi	r5,50
 2000da0:	100d883a 	mov	r6,r2
 2000da4:	01c00184 	movi	r7,6
 2000da8:	20080240 	call	2008024 <SPI_MultipleRead>
 2000dac:	e0bffb15 	stw	r2,-20(fp)
    if (bPass){
 2000db0:	e0bffb17 	ldw	r2,-20(fp)
 2000db4:	10001e26 	beq	r2,zero,2000e30 <ADXL345_SPI_XYZ_Read+0xb4>
        szData16[0] = (szData8[1] << 8) | szData8[0]; 
 2000db8:	e0bffc43 	ldbu	r2,-15(fp)
 2000dbc:	10803fcc 	andi	r2,r2,255
 2000dc0:	1004923a 	slli	r2,r2,8
 2000dc4:	1007883a 	mov	r3,r2
 2000dc8:	e0bffc03 	ldbu	r2,-16(fp)
 2000dcc:	10803fcc 	andi	r2,r2,255
 2000dd0:	1884b03a 	or	r2,r3,r2
 2000dd4:	1007883a 	mov	r3,r2
 2000dd8:	e0bfff17 	ldw	r2,-4(fp)
 2000ddc:	10c0000d 	sth	r3,0(r2)
        szData16[1] = (szData8[3] << 8) | szData8[2];
 2000de0:	e0bfff17 	ldw	r2,-4(fp)
 2000de4:	10800084 	addi	r2,r2,2
 2000de8:	e0fffcc3 	ldbu	r3,-13(fp)
 2000dec:	18c03fcc 	andi	r3,r3,255
 2000df0:	1806923a 	slli	r3,r3,8
 2000df4:	1809883a 	mov	r4,r3
 2000df8:	e0fffc83 	ldbu	r3,-14(fp)
 2000dfc:	18c03fcc 	andi	r3,r3,255
 2000e00:	20c6b03a 	or	r3,r4,r3
 2000e04:	10c0000d 	sth	r3,0(r2)
        szData16[2] = (szData8[5] << 8) | szData8[4];
 2000e08:	e0bfff17 	ldw	r2,-4(fp)
 2000e0c:	10800104 	addi	r2,r2,4
 2000e10:	e0fffd43 	ldbu	r3,-11(fp)
 2000e14:	18c03fcc 	andi	r3,r3,255
 2000e18:	1806923a 	slli	r3,r3,8
 2000e1c:	1809883a 	mov	r4,r3
 2000e20:	e0fffd03 	ldbu	r3,-12(fp)
 2000e24:	18c03fcc 	andi	r3,r3,255
 2000e28:	20c6b03a 	or	r3,r4,r3
 2000e2c:	10c0000d 	sth	r3,0(r2)
    }        
    
    return bPass;
 2000e30:	e0bffb17 	ldw	r2,-20(fp)
}
 2000e34:	e037883a 	mov	sp,fp
 2000e38:	dfc00117 	ldw	ra,4(sp)
 2000e3c:	df000017 	ldw	fp,0(sp)
 2000e40:	dec00204 	addi	sp,sp,8
 2000e44:	f800283a 	ret

02000e48 <ADXL345_SPI_IdRead>:

bool ADXL345_SPI_IdRead(alt_u32 device_base, alt_u8 *pId){
 2000e48:	defffb04 	addi	sp,sp,-20
 2000e4c:	dfc00415 	stw	ra,16(sp)
 2000e50:	df000315 	stw	fp,12(sp)
 2000e54:	df000304 	addi	fp,sp,12
 2000e58:	e13ffe15 	stw	r4,-8(fp)
 2000e5c:	e17fff15 	stw	r5,-4(fp)
    bool bPass;
    bPass = SPI_Read(device_base, ADXL345_REG_DEVID, pId);
 2000e60:	e13ffe17 	ldw	r4,-8(fp)
 2000e64:	000b883a 	mov	r5,zero
 2000e68:	e1bfff17 	ldw	r6,-4(fp)
 2000e6c:	20081600 	call	2008160 <SPI_Read>
 2000e70:	e0bffd15 	stw	r2,-12(fp)
    
    return bPass;
 2000e74:	e0bffd17 	ldw	r2,-12(fp)
}
 2000e78:	e037883a 	mov	sp,fp
 2000e7c:	dfc00117 	ldw	ra,4(sp)
 2000e80:	df000017 	ldw	fp,0(sp)
 2000e84:	dec00204 	addi	sp,sp,8
 2000e88:	f800283a 	ret

02000e8c <GUI_ShowWelcome>:
    RECT rcPaint;
    PALETTE_INFO szPalette[BTN_NUM];
}DESK_INFO;


void GUI_ShowWelcome(alt_video_display *pDisplay){
 2000e8c:	defff804 	addi	sp,sp,-32
 2000e90:	dfc00715 	stw	ra,28(sp)
 2000e94:	df000615 	stw	fp,24(sp)
 2000e98:	df000604 	addi	fp,sp,24
 2000e9c:	e13fff15 	stw	r4,-4(fp)
	int x, y;


	x = pDisplay->width / 2 - 60;
 2000ea0:	e0bfff17 	ldw	r2,-4(fp)
 2000ea4:	10800117 	ldw	r2,4(r2)
 2000ea8:	1006d7fa 	srli	r3,r2,31
 2000eac:	1885883a 	add	r2,r3,r2
 2000eb0:	1005d07a 	srai	r2,r2,1
 2000eb4:	10bff104 	addi	r2,r2,-60
 2000eb8:	e0bffd15 	stw	r2,-12(fp)
	y = pDisplay->height / 2 - 10;
 2000ebc:	e0bfff17 	ldw	r2,-4(fp)
 2000ec0:	10800217 	ldw	r2,8(r2)
 2000ec4:	1006d7fa 	srli	r3,r2,31
 2000ec8:	1885883a 	add	r2,r3,r2
 2000ecc:	1005d07a 	srai	r2,r2,1
 2000ed0:	10bffd84 	addi	r2,r2,-10
 2000ed4:	e0bffe15 	stw	r2,-8(fp)

	vid_print_string_alpha(x, y, BLUE_24, BLACK_24, tahomabold_20, pDisplay, "Terasic");
 2000ed8:	00808134 	movhi	r2,516
 2000edc:	10b8bd04 	addi	r2,r2,-7436
 2000ee0:	d8800015 	stw	r2,0(sp)
 2000ee4:	e0bfff17 	ldw	r2,-4(fp)
 2000ee8:	d8800115 	stw	r2,4(sp)
 2000eec:	008080b4 	movhi	r2,514
 2000ef0:	108f7c04 	addi	r2,r2,15856
 2000ef4:	d8800215 	stw	r2,8(sp)
 2000ef8:	e13ffd17 	ldw	r4,-12(fp)
 2000efc:	e17ffe17 	ldw	r5,-8(fp)
 2000f00:	01803fc4 	movi	r6,255
 2000f04:	000f883a 	mov	r7,zero
 2000f08:	20054bc0 	call	20054bc <vid_print_string_alpha>
	vid_print_string_alpha(x, y+22, BLUE_24, BLACK_24, tahomabold_20, pDisplay, "Touch Demo");
 2000f0c:	e0bffe17 	ldw	r2,-8(fp)
 2000f10:	10c00584 	addi	r3,r2,22
 2000f14:	00808134 	movhi	r2,516
 2000f18:	10b8bd04 	addi	r2,r2,-7436
 2000f1c:	d8800015 	stw	r2,0(sp)
 2000f20:	e0bfff17 	ldw	r2,-4(fp)
 2000f24:	d8800115 	stw	r2,4(sp)
 2000f28:	008080b4 	movhi	r2,514
 2000f2c:	108f7e04 	addi	r2,r2,15864
 2000f30:	d8800215 	stw	r2,8(sp)
 2000f34:	e13ffd17 	ldw	r4,-12(fp)
 2000f38:	180b883a 	mov	r5,r3
 2000f3c:	01803fc4 	movi	r6,255
 2000f40:	000f883a 	mov	r7,zero
 2000f44:	20054bc0 	call	20054bc <vid_print_string_alpha>
}
 2000f48:	e037883a 	mov	sp,fp
 2000f4c:	dfc00117 	ldw	ra,4(sp)
 2000f50:	df000017 	ldw	fp,0(sp)
 2000f54:	dec00204 	addi	sp,sp,8
 2000f58:	f800283a 	ret

02000f5c <GUI_ShowInfo>:

void GUI_ShowInfo(alt_video_display *pDisplay, char *pText){
 2000f5c:	defff904 	addi	sp,sp,-28
 2000f60:	dfc00615 	stw	ra,24(sp)
 2000f64:	df000515 	stw	fp,20(sp)
 2000f68:	df000504 	addi	fp,sp,20
 2000f6c:	e13ffe15 	stw	r4,-8(fp)
 2000f70:	e17fff15 	stw	r5,-4(fp)
    static int x=0,y=100;
   // vid_clean_screen(pReader, BLACK_24);
    vid_print_string_alpha(x, y, BLUE_24, BLACK_24, tahomabold_20, pDisplay, pText);
 2000f74:	d12e0117 	ldw	r4,-18428(gp)
 2000f78:	d0e00017 	ldw	r3,-32768(gp)
 2000f7c:	00808134 	movhi	r2,516
 2000f80:	10b8bd04 	addi	r2,r2,-7436
 2000f84:	d8800015 	stw	r2,0(sp)
 2000f88:	e0bffe17 	ldw	r2,-8(fp)
 2000f8c:	d8800115 	stw	r2,4(sp)
 2000f90:	e0bfff17 	ldw	r2,-4(fp)
 2000f94:	d8800215 	stw	r2,8(sp)
 2000f98:	180b883a 	mov	r5,r3
 2000f9c:	01803fc4 	movi	r6,255
 2000fa0:	000f883a 	mov	r7,zero
 2000fa4:	20054bc0 	call	20054bc <vid_print_string_alpha>
 //   VIPFR_ActiveDrawFrame(pReader);
}
 2000fa8:	e037883a 	mov	sp,fp
 2000fac:	dfc00117 	ldw	ra,4(sp)
 2000fb0:	df000017 	ldw	fp,0(sp)
 2000fb4:	dec00204 	addi	sp,sp,8
 2000fb8:	f800283a 	ret

02000fbc <GUI_ShowTouchPoint>:

void GUI_ShowTouchPoint(alt_video_display *pDisplay, int X, int Y, int color){
 2000fbc:	defff804 	addi	sp,sp,-32
 2000fc0:	dfc00715 	stw	ra,28(sp)
 2000fc4:	df000615 	stw	fp,24(sp)
 2000fc8:	df000604 	addi	fp,sp,24
 2000fcc:	e13ffc15 	stw	r4,-16(fp)
 2000fd0:	e17ffd15 	stw	r5,-12(fp)
 2000fd4:	e1bffe15 	stw	r6,-8(fp)
 2000fd8:	e1ffff15 	stw	r7,-4(fp)
    vid_draw_circle(X, Y, 10, color, DO_FILL, pDisplay);
 2000fdc:	00800044 	movi	r2,1
 2000fe0:	d8800015 	stw	r2,0(sp)
 2000fe4:	e0bffc17 	ldw	r2,-16(fp)
 2000fe8:	d8800115 	stw	r2,4(sp)
 2000fec:	e13ffd17 	ldw	r4,-12(fp)
 2000ff0:	e17ffe17 	ldw	r5,-8(fp)
 2000ff4:	01800284 	movi	r6,10
 2000ff8:	e1ffff17 	ldw	r7,-4(fp)
 2000ffc:	2003ed40 	call	2003ed4 <vid_draw_circle>
   // VIPFR_ActiveDrawFrame(pReader);
}
 2001000:	e037883a 	mov	sp,fp
 2001004:	dfc00117 	ldw	ra,4(sp)
 2001008:	df000017 	ldw	fp,0(sp)
 200100c:	dec00204 	addi	sp,sp,8
 2001010:	f800283a 	ret

02001014 <GUI_DeskInit>:


//----------------------------------------------------------------------------------------------------

void GUI_DeskInit(alt_video_display *pDisplay, DESK_INFO *pDeskInfo){
 2001014:	deffef04 	addi	sp,sp,-68
 2001018:	dfc01015 	stw	ra,64(sp)
 200101c:	df000f15 	stw	fp,60(sp)
 2001020:	df000f04 	addi	fp,sp,60
 2001024:	e13ffe15 	stw	r4,-8(fp)
 2001028:	e17fff15 	stw	r5,-4(fp)
    int i;
    RECT rc;
    const int BoxH = 40;
 200102c:	00800a04 	movi	r2,40
 2001030:	e0bff315 	stw	r2,-52(fp)
    const int BoxW = 40;
 2001034:	00800a04 	movi	r2,40
 2001038:	e0bff415 	stw	r2,-48(fp)
    const int GapH = 5;
 200103c:	00800144 	movi	r2,5
 2001040:	e0bff515 	stw	r2,-44(fp)
    const int DrawBorder = 2;
 2001044:	00800084 	movi	r2,2
 2001048:	e0bff615 	stw	r2,-40(fp)
    const int TextW = 0;
 200104c:	e03ff715 	stw	zero,-36(fp)
    const int ClearExtraW = 30;
 2001050:	00800784 	movi	r2,30
 2001054:	e0bff815 	stw	r2,-32(fp)
    int GapW;

    
    GapW = (pDisplay->width - TextW - ClearExtraW - (BTN_NUM*BoxW))/(BTN_NUM+1);
 2001058:	e0bffe17 	ldw	r2,-8(fp)
 200105c:	10c00117 	ldw	r3,4(r2)
 2001060:	e0bff717 	ldw	r2,-36(fp)
 2001064:	1887c83a 	sub	r3,r3,r2
 2001068:	e0bff817 	ldw	r2,-32(fp)
 200106c:	1887c83a 	sub	r3,r3,r2
 2001070:	e0bff417 	ldw	r2,-48(fp)
 2001074:	10bffee4 	muli	r2,r2,-5
 2001078:	1885883a 	add	r2,r3,r2
 200107c:	1009883a 	mov	r4,r2
 2001080:	01400184 	movi	r5,6
 2001084:	20086580 	call	2008658 <__divsi3>
 2001088:	e0bff915 	stw	r2,-28(fp)
    //printf("GapW=%d\r\n", GapW);
    rc.top = pDisplay->height - BoxH - GapH;
 200108c:	e0bffe17 	ldw	r2,-8(fp)
 2001090:	10c00217 	ldw	r3,8(r2)
 2001094:	e0bff317 	ldw	r2,-52(fp)
 2001098:	1887c83a 	sub	r3,r3,r2
 200109c:	e0bff517 	ldw	r2,-44(fp)
 20010a0:	1885c83a 	sub	r2,r3,r2
 20010a4:	e0bffc15 	stw	r2,-16(fp)
    rc.bottom = rc.top + BoxH;
 20010a8:	e0fffc17 	ldw	r3,-16(fp)
 20010ac:	e0bff317 	ldw	r2,-52(fp)
 20010b0:	1885883a 	add	r2,r3,r2
 20010b4:	e0bffd15 	stw	r2,-12(fp)
    rc.left = GapW + TextW + ClearExtraW;
 20010b8:	e0fff917 	ldw	r3,-28(fp)
 20010bc:	e0bff717 	ldw	r2,-36(fp)
 20010c0:	1887883a 	add	r3,r3,r2
 20010c4:	e0bff817 	ldw	r2,-32(fp)
 20010c8:	1885883a 	add	r2,r3,r2
 20010cc:	e0bffa15 	stw	r2,-24(fp)
    rc.right = rc.left + BoxW;
 20010d0:	e0fffa17 	ldw	r3,-24(fp)
 20010d4:	e0bff417 	ldw	r2,-48(fp)
 20010d8:	1885883a 	add	r2,r3,r2
 20010dc:	e0bffb15 	stw	r2,-20(fp)
    
    // desk drawing area    
    RectSet(&pDeskInfo->rcPaint, DrawBorder, pDisplay->width-DrawBorder, DrawBorder, rc.top - DrawBorder);
 20010e0:	e0bfff17 	ldw	r2,-4(fp)
 20010e4:	11000104 	addi	r4,r2,4
 20010e8:	e0bffe17 	ldw	r2,-8(fp)
 20010ec:	10c00117 	ldw	r3,4(r2)
 20010f0:	e0bff617 	ldw	r2,-40(fp)
 20010f4:	188dc83a 	sub	r6,r3,r2
 20010f8:	e0fffc17 	ldw	r3,-16(fp)
 20010fc:	e0bff617 	ldw	r2,-40(fp)
 2001100:	1885c83a 	sub	r2,r3,r2
 2001104:	d8800015 	stw	r2,0(sp)
 2001108:	e17ff617 	ldw	r5,-40(fp)
 200110c:	e1fff617 	ldw	r7,-40(fp)
 2001110:	2002b380 	call	2002b38 <RectSet>
    
    for(i=0;i<BTN_NUM;i++){
 2001114:	e03ff215 	stw	zero,-56(fp)
 2001118:	00002206 	br	20011a4 <GUI_DeskInit+0x190>
        RectCopy(&pDeskInfo->szPalette[i].rc, &rc);
 200111c:	e0bff217 	ldw	r2,-56(fp)
 2001120:	10800044 	addi	r2,r2,1
 2001124:	10800524 	muli	r2,r2,20
 2001128:	e0ffff17 	ldw	r3,-4(fp)
 200112c:	1887883a 	add	r3,r3,r2
 2001130:	e0bffa04 	addi	r2,fp,-24
 2001134:	1809883a 	mov	r4,r3
 2001138:	100b883a 	mov	r5,r2
 200113c:	2002ca40 	call	2002ca4 <RectCopy>
        pDeskInfo->szPalette[i].color = szPallete[i];
 2001140:	00808134 	movhi	r2,516
 2001144:	10b8b804 	addi	r2,r2,-7456
 2001148:	e0fff217 	ldw	r3,-56(fp)
 200114c:	18c7883a 	add	r3,r3,r3
 2001150:	18c7883a 	add	r3,r3,r3
 2001154:	10c5883a 	add	r2,r2,r3
 2001158:	10800017 	ldw	r2,0(r2)
 200115c:	1009883a 	mov	r4,r2
 2001160:	e0ffff17 	ldw	r3,-4(fp)
 2001164:	e0bff217 	ldw	r2,-56(fp)
 2001168:	10800524 	muli	r2,r2,20
 200116c:	10800904 	addi	r2,r2,36
 2001170:	1885883a 	add	r2,r3,r2
 2001174:	11000015 	stw	r4,0(r2)
        RectOffset(&rc, BoxW+GapW, 0);
 2001178:	e0fff417 	ldw	r3,-48(fp)
 200117c:	e0bff917 	ldw	r2,-28(fp)
 2001180:	1885883a 	add	r2,r3,r2
 2001184:	e0fffa04 	addi	r3,fp,-24
 2001188:	1809883a 	mov	r4,r3
 200118c:	100b883a 	mov	r5,r2
 2001190:	000d883a 	mov	r6,zero
 2001194:	2002c1c0 	call	2002c1c <RectOffset>
    rc.right = rc.left + BoxW;
    
    // desk drawing area    
    RectSet(&pDeskInfo->rcPaint, DrawBorder, pDisplay->width-DrawBorder, DrawBorder, rc.top - DrawBorder);
    
    for(i=0;i<BTN_NUM;i++){
 2001198:	e0bff217 	ldw	r2,-56(fp)
 200119c:	10800044 	addi	r2,r2,1
 20011a0:	e0bff215 	stw	r2,-56(fp)
 20011a4:	e0bff217 	ldw	r2,-56(fp)
 20011a8:	10800150 	cmplti	r2,r2,5
 20011ac:	103fdb1e 	bne	r2,zero,200111c <GUI_DeskInit+0x108>
        RectCopy(&pDeskInfo->szPalette[i].rc, &rc);
        pDeskInfo->szPalette[i].color = szPallete[i];
        RectOffset(&rc, BoxW+GapW, 0);
    }
    pDeskInfo->szPalette[BTN_CLEAR].rc.left -= ClearExtraW;
 20011b0:	e0bfff17 	ldw	r2,-4(fp)
 20011b4:	10c00517 	ldw	r3,20(r2)
 20011b8:	e0bff817 	ldw	r2,-32(fp)
 20011bc:	1887c83a 	sub	r3,r3,r2
 20011c0:	e0bfff17 	ldw	r2,-4(fp)
 20011c4:	10c00515 	stw	r3,20(r2)
    pDeskInfo->Paint_Index = BTN_BLUE;
 20011c8:	e0bfff17 	ldw	r2,-4(fp)
 20011cc:	00c00084 	movi	r3,2
 20011d0:	10c00015 	stw	r3,0(r2)
}
 20011d4:	e037883a 	mov	sp,fp
 20011d8:	dfc00117 	ldw	ra,4(sp)
 20011dc:	df000017 	ldw	fp,0(sp)
 20011e0:	dec00204 	addi	sp,sp,8
 20011e4:	f800283a 	ret

020011e8 <GUI_CheckButton>:

//----------------------------------------------------------------------------------------------------

int GUI_CheckButton(DESK_INFO *pDeskInfo, POINT *pt){
 20011e8:	defffa04 	addi	sp,sp,-24
 20011ec:	dfc00515 	stw	ra,20(sp)
 20011f0:	df000415 	stw	fp,16(sp)
 20011f4:	df000404 	addi	fp,sp,16
 20011f8:	e13ffe15 	stw	r4,-8(fp)
 20011fc:	e17fff15 	stw	r5,-4(fp)
    int ButtonId = BTN_NONE;
 2001200:	00800184 	movi	r2,6
 2001204:	e0bffc15 	stw	r2,-16(fp)
    int i;
    
    for(i=0;i<BTN_NUM && (ButtonId == BTN_NONE);i++){
 2001208:	e03ffd15 	stw	zero,-12(fp)
 200120c:	00000e06 	br	2001248 <GUI_CheckButton+0x60>
        if (IsPtInRect(pt, &pDeskInfo->szPalette[i].rc))
 2001210:	e0bffd17 	ldw	r2,-12(fp)
 2001214:	10800044 	addi	r2,r2,1
 2001218:	10800524 	muli	r2,r2,20
 200121c:	e0fffe17 	ldw	r3,-8(fp)
 2001220:	1885883a 	add	r2,r3,r2
 2001224:	e13fff17 	ldw	r4,-4(fp)
 2001228:	100b883a 	mov	r5,r2
 200122c:	2002a740 	call	2002a74 <IsPtInRect>
 2001230:	10000226 	beq	r2,zero,200123c <GUI_CheckButton+0x54>
            ButtonId = i;
 2001234:	e0bffd17 	ldw	r2,-12(fp)
 2001238:	e0bffc15 	stw	r2,-16(fp)

int GUI_CheckButton(DESK_INFO *pDeskInfo, POINT *pt){
    int ButtonId = BTN_NONE;
    int i;
    
    for(i=0;i<BTN_NUM && (ButtonId == BTN_NONE);i++){
 200123c:	e0bffd17 	ldw	r2,-12(fp)
 2001240:	10800044 	addi	r2,r2,1
 2001244:	e0bffd15 	stw	r2,-12(fp)
 2001248:	e0bffd17 	ldw	r2,-12(fp)
 200124c:	10800148 	cmpgei	r2,r2,5
 2001250:	1000031e 	bne	r2,zero,2001260 <GUI_CheckButton+0x78>
 2001254:	e0bffc17 	ldw	r2,-16(fp)
 2001258:	108001a0 	cmpeqi	r2,r2,6
 200125c:	103fec1e 	bne	r2,zero,2001210 <GUI_CheckButton+0x28>
        if (IsPtInRect(pt, &pDeskInfo->szPalette[i].rc))
            ButtonId = i;
    }
    return ButtonId;
 2001260:	e0bffc17 	ldw	r2,-16(fp)
}
 2001264:	e037883a 	mov	sp,fp
 2001268:	dfc00117 	ldw	ra,4(sp)
 200126c:	df000017 	ldw	fp,0(sp)
 2001270:	dec00204 	addi	sp,sp,8
 2001274:	f800283a 	ret

02001278 <GUI_DeskDraw>:

//----------------------------------------------------------------------------------------------------

void GUI_DeskDraw(alt_video_display *pDisplay, DESK_INFO *pDeskInfo){
 2001278:	defff104 	addi	sp,sp,-60
 200127c:	dfc00e15 	stw	ra,56(sp)
 2001280:	df000d15 	stw	fp,52(sp)
 2001284:	dc400c15 	stw	r17,48(sp)
 2001288:	dc000b15 	stw	r16,44(sp)
 200128c:	df000d04 	addi	fp,sp,52
 2001290:	e13ffc15 	stw	r4,-16(fp)
 2001294:	e17ffd15 	stw	r5,-12(fp)
    // show text
    //  vid_print_string_alpha(pDeskInfo->rcPaint.left, pDeskInfo->szPalette[0].rc.top, BLUE_24, BLACK_24, tahomabold_20, pDisplay, "Terasic");
    //  vid_print_string_alpha(pDeskInfo->rcPaint.left, pDeskInfo->szPalette[0].rc.top+22, BLUE_24, BLACK_24, tahomabold_20, pDisplay, "Touch");

    // draw border
    RectCopy(&rc, &pDeskInfo->rcPaint);
 2001298:	e0bffd17 	ldw	r2,-12(fp)
 200129c:	10800104 	addi	r2,r2,4
 20012a0:	e0fff804 	addi	r3,fp,-32
 20012a4:	1809883a 	mov	r4,r3
 20012a8:	100b883a 	mov	r5,r2
 20012ac:	2002ca40 	call	2002ca4 <RectCopy>
    vid_draw_box (rc.left, rc.top, rc.right, rc.bottom, WHITE_24, DO_NOT_FILL, pDisplay);
 20012b0:	e13ff817 	ldw	r4,-32(fp)
 20012b4:	e17ffa17 	ldw	r5,-24(fp)
 20012b8:	e1bff917 	ldw	r6,-28(fp)
 20012bc:	e0fffb17 	ldw	r3,-20(fp)
 20012c0:	00804034 	movhi	r2,256
 20012c4:	10bfffc4 	addi	r2,r2,-1
 20012c8:	d8800015 	stw	r2,0(sp)
 20012cc:	d8000115 	stw	zero,4(sp)
 20012d0:	e0bffc17 	ldw	r2,-16(fp)
 20012d4:	d8800215 	stw	r2,8(sp)
 20012d8:	180f883a 	mov	r7,r3
 20012dc:	20036b00 	call	20036b0 <vid_draw_box>
    

    // draw palette
	active = pDeskInfo->Paint_Index;
 20012e0:	e0bffd17 	ldw	r2,-12(fp)
 20012e4:	10800017 	ldw	r2,0(r2)
 20012e8:	e0bff715 	stw	r2,-36(fp)
    for(i=0;i<BTN_NUM;i++){
 20012ec:	e03ff615 	stw	zero,-40(fp)
 20012f0:	00005e06 	br	200146c <GUI_DeskDraw+0x1f4>
        RectCopy(&rc, &(pDeskInfo->szPalette[i].rc));
 20012f4:	e0bff617 	ldw	r2,-40(fp)
 20012f8:	10800044 	addi	r2,r2,1
 20012fc:	10800524 	muli	r2,r2,20
 2001300:	e0fffd17 	ldw	r3,-12(fp)
 2001304:	1885883a 	add	r2,r3,r2
 2001308:	e0fff804 	addi	r3,fp,-32
 200130c:	1809883a 	mov	r4,r3
 2001310:	100b883a 	mov	r5,r2
 2001314:	2002ca40 	call	2002ca4 <RectCopy>
        if (i == BTN_CLEAR){
 2001318:	e0bff617 	ldw	r2,-40(fp)
 200131c:	10002d1e 	bne	r2,zero,20013d4 <GUI_DeskDraw+0x15c>
            vid_draw_box (rc.left, rc.top, rc.right, rc.bottom, pDeskInfo->szPalette[i].color, DO_NOT_FILL, pDisplay);
 2001320:	e13ff817 	ldw	r4,-32(fp)
 2001324:	e17ffa17 	ldw	r5,-24(fp)
 2001328:	e1bff917 	ldw	r6,-28(fp)
 200132c:	e1fffb17 	ldw	r7,-20(fp)
 2001330:	e0fffd17 	ldw	r3,-12(fp)
 2001334:	e0bff617 	ldw	r2,-40(fp)
 2001338:	10800524 	muli	r2,r2,20
 200133c:	10800904 	addi	r2,r2,36
 2001340:	1885883a 	add	r2,r3,r2
 2001344:	10800017 	ldw	r2,0(r2)
 2001348:	d8800015 	stw	r2,0(sp)
 200134c:	d8000115 	stw	zero,4(sp)
 2001350:	e0bffc17 	ldw	r2,-16(fp)
 2001354:	d8800215 	stw	r2,8(sp)
 2001358:	20036b00 	call	20036b0 <vid_draw_box>
            vid_print_string_alpha(rc.left+8, rc.top+(RectHeight(&rc)-22)/2, pDeskInfo->szPalette[i].color, BLACK_24, tahomabold_20, pDisplay, "Clear");
 200135c:	e0bff817 	ldw	r2,-32(fp)
 2001360:	14400204 	addi	r17,r2,8
 2001364:	e43ffa17 	ldw	r16,-24(fp)
 2001368:	e0bff804 	addi	r2,fp,-32
 200136c:	1009883a 	mov	r4,r2
 2001370:	2002d3c0 	call	2002d3c <RectHeight>
 2001374:	10bffa84 	addi	r2,r2,-22
 2001378:	1006d7fa 	srli	r3,r2,31
 200137c:	1885883a 	add	r2,r3,r2
 2001380:	1005d07a 	srai	r2,r2,1
 2001384:	808b883a 	add	r5,r16,r2
 2001388:	e0fffd17 	ldw	r3,-12(fp)
 200138c:	e0bff617 	ldw	r2,-40(fp)
 2001390:	10800524 	muli	r2,r2,20
 2001394:	10800904 	addi	r2,r2,36
 2001398:	1885883a 	add	r2,r3,r2
 200139c:	10c00017 	ldw	r3,0(r2)
 20013a0:	00808134 	movhi	r2,516
 20013a4:	10b8bd04 	addi	r2,r2,-7436
 20013a8:	d8800015 	stw	r2,0(sp)
 20013ac:	e0bffc17 	ldw	r2,-16(fp)
 20013b0:	d8800115 	stw	r2,4(sp)
 20013b4:	008080b4 	movhi	r2,514
 20013b8:	108f8104 	addi	r2,r2,15876
 20013bc:	d8800215 	stw	r2,8(sp)
 20013c0:	8809883a 	mov	r4,r17
 20013c4:	180d883a 	mov	r6,r3
 20013c8:	000f883a 	mov	r7,zero
 20013cc:	20054bc0 	call	20054bc <vid_print_string_alpha>
 20013d0:	00002306 	br	2001460 <GUI_DeskDraw+0x1e8>
        }else{
        	if (active != i){
 20013d4:	e0fff717 	ldw	r3,-36(fp)
 20013d8:	e0bff617 	ldw	r2,-40(fp)
 20013dc:	18801026 	beq	r3,r2,2001420 <GUI_DeskDraw+0x1a8>
          		vid_draw_box (rc.left, rc.top, rc.right, rc.bottom, BLACK_24, DO_FILL, pDisplay);
 20013e0:	e13ff817 	ldw	r4,-32(fp)
 20013e4:	e17ffa17 	ldw	r5,-24(fp)
 20013e8:	e1bff917 	ldw	r6,-28(fp)
 20013ec:	e0fffb17 	ldw	r3,-20(fp)
 20013f0:	d8000015 	stw	zero,0(sp)
 20013f4:	00800044 	movi	r2,1
 20013f8:	d8800115 	stw	r2,4(sp)
 20013fc:	e0bffc17 	ldw	r2,-16(fp)
 2001400:	d8800215 	stw	r2,8(sp)
 2001404:	180f883a 	mov	r7,r3
 2001408:	20036b00 	call	20036b0 <vid_draw_box>
        		RectInflate(&rc, -4, -4);
 200140c:	e0bff804 	addi	r2,fp,-32
 2001410:	1009883a 	mov	r4,r2
 2001414:	017fff04 	movi	r5,-4
 2001418:	01bfff04 	movi	r6,-4
 200141c:	2002b940 	call	2002b94 <RectInflate>
        	}
      		vid_draw_box (rc.left, rc.top, rc.right, rc.bottom, pDeskInfo->szPalette[i].color, DO_FILL, pDisplay);
 2001420:	e13ff817 	ldw	r4,-32(fp)
 2001424:	e17ffa17 	ldw	r5,-24(fp)
 2001428:	e1bff917 	ldw	r6,-28(fp)
 200142c:	e1fffb17 	ldw	r7,-20(fp)
 2001430:	e0fffd17 	ldw	r3,-12(fp)
 2001434:	e0bff617 	ldw	r2,-40(fp)
 2001438:	10800524 	muli	r2,r2,20
 200143c:	10800904 	addi	r2,r2,36
 2001440:	1885883a 	add	r2,r3,r2
 2001444:	10800017 	ldw	r2,0(r2)
 2001448:	d8800015 	stw	r2,0(sp)
 200144c:	00800044 	movi	r2,1
 2001450:	d8800115 	stw	r2,4(sp)
 2001454:	e0bffc17 	ldw	r2,-16(fp)
 2001458:	d8800215 	stw	r2,8(sp)
 200145c:	20036b00 	call	20036b0 <vid_draw_box>
    vid_draw_box (rc.left, rc.top, rc.right, rc.bottom, WHITE_24, DO_NOT_FILL, pDisplay);
    

    // draw palette
	active = pDeskInfo->Paint_Index;
    for(i=0;i<BTN_NUM;i++){
 2001460:	e0bff617 	ldw	r2,-40(fp)
 2001464:	10800044 	addi	r2,r2,1
 2001468:	e0bff615 	stw	r2,-40(fp)
 200146c:	e0bff617 	ldw	r2,-40(fp)
 2001470:	10800150 	cmplti	r2,r2,5
 2001474:	103f9f1e 	bne	r2,zero,20012f4 <GUI_DeskDraw+0x7c>
    //  vid_print_string_alpha(rc.left+2, rc.top+2, BLACK_24, pDeskInfo->szPalette[active].color, tahomabold_20, pDisplay, "*");
        
    //active = pDeskInfo->Paint1_Index;
    //RectCopy(&rc, &pDeskInfo->szPalette[active].rc);
    //vid_print_string_alpha(rc.left+2, rc.top+2, BLACK_24, pDeskInfo->szPalette[active].color, tahomabold_20, pDisplay, "2");
}
 2001478:	e6fffe04 	addi	sp,fp,-8
 200147c:	dfc00317 	ldw	ra,12(sp)
 2001480:	df000217 	ldw	fp,8(sp)
 2001484:	dc400117 	ldw	r17,4(sp)
 2001488:	dc000017 	ldw	r16,0(sp)
 200148c:	dec00404 	addi	sp,sp,16
 2001490:	f800283a 	ret

02001494 <IsContinuedPoint>:

//----------------------------------------------------------------------------------------------------

bool IsContinuedPoint(POINT *ptPre, POINT *ptNew){
 2001494:	defffb04 	addi	sp,sp,-20
 2001498:	df000415 	stw	fp,16(sp)
 200149c:	df000404 	addi	fp,sp,16
 20014a0:	e13ffe15 	stw	r4,-8(fp)
 20014a4:	e17fff15 	stw	r5,-4(fp)
    bool bYes = TRUE;
 20014a8:	00800044 	movi	r2,1
 20014ac:	e0bffc15 	stw	r2,-16(fp)
    const int nMax = 50;
 20014b0:	00800c84 	movi	r2,50
 20014b4:	e0bffd15 	stw	r2,-12(fp)
    if (abs(ptPre->x - ptNew->x) > nMax)
 20014b8:	e0bffe17 	ldw	r2,-8(fp)
 20014bc:	10c00017 	ldw	r3,0(r2)
 20014c0:	e0bfff17 	ldw	r2,-4(fp)
 20014c4:	10800017 	ldw	r2,0(r2)
 20014c8:	1885c83a 	sub	r2,r3,r2
 20014cc:	1000010e 	bge	r2,zero,20014d4 <IsContinuedPoint+0x40>
 20014d0:	0085c83a 	sub	r2,zero,r2
 20014d4:	1007883a 	mov	r3,r2
 20014d8:	e0bffd17 	ldw	r2,-12(fp)
 20014dc:	10c0020e 	bge	r2,r3,20014e8 <IsContinuedPoint+0x54>
        bYes = FALSE;
 20014e0:	e03ffc15 	stw	zero,-16(fp)
 20014e4:	00000b06 	br	2001514 <IsContinuedPoint+0x80>
    else if (abs(ptPre->y - ptNew->y) > nMax)
 20014e8:	e0bffe17 	ldw	r2,-8(fp)
 20014ec:	10c00117 	ldw	r3,4(r2)
 20014f0:	e0bfff17 	ldw	r2,-4(fp)
 20014f4:	10800117 	ldw	r2,4(r2)
 20014f8:	1885c83a 	sub	r2,r3,r2
 20014fc:	1000010e 	bge	r2,zero,2001504 <IsContinuedPoint+0x70>
 2001500:	0085c83a 	sub	r2,zero,r2
 2001504:	1007883a 	mov	r3,r2
 2001508:	e0bffd17 	ldw	r2,-12(fp)
 200150c:	10c0010e 	bge	r2,r3,2001514 <IsContinuedPoint+0x80>
        bYes = FALSE;
 2001510:	e03ffc15 	stw	zero,-16(fp)
        
    return bYes;
 2001514:	e0bffc17 	ldw	r2,-16(fp)
}
 2001518:	e037883a 	mov	sp,fp
 200151c:	df000017 	ldw	fp,0(sp)
 2001520:	dec00104 	addi	sp,sp,4
 2001524:	f800283a 	ret

02001528 <GUI_ClearPaintArea>:

//----------------------------------------------------------------------------------------------------

void GUI_ClearPaintArea(alt_video_display *pDisplay, DESK_INFO *pDeskInfo){
 2001528:	defff504 	addi	sp,sp,-44
 200152c:	dfc00a15 	stw	ra,40(sp)
 2001530:	df000915 	stw	fp,36(sp)
 2001534:	df000904 	addi	fp,sp,36
 2001538:	e13ffe15 	stw	r4,-8(fp)
 200153c:	e17fff15 	stw	r5,-4(fp)
    RECT rc;
    RectCopy(&rc, &pDeskInfo->rcPaint);
 2001540:	e0bfff17 	ldw	r2,-4(fp)
 2001544:	10800104 	addi	r2,r2,4
 2001548:	e13ffa04 	addi	r4,fp,-24
 200154c:	100b883a 	mov	r5,r2
 2001550:	2002ca40 	call	2002ca4 <RectCopy>
    RectInflate(&rc, -1, -1);
 2001554:	e13ffa04 	addi	r4,fp,-24
 2001558:	017fffc4 	movi	r5,-1
 200155c:	01bfffc4 	movi	r6,-1
 2001560:	2002b940 	call	2002b94 <RectInflate>
    vid_draw_box (rc.left, rc.top, rc.right, rc.bottom, BLACK_24, DO_FILL, pDisplay);
 2001564:	e13ffa17 	ldw	r4,-24(fp)
 2001568:	e17ffc17 	ldw	r5,-16(fp)
 200156c:	e1bffb17 	ldw	r6,-20(fp)
 2001570:	e0fffd17 	ldw	r3,-12(fp)
 2001574:	d8000015 	stw	zero,0(sp)
 2001578:	00800044 	movi	r2,1
 200157c:	d8800115 	stw	r2,4(sp)
 2001580:	e0bffe17 	ldw	r2,-8(fp)
 2001584:	d8800215 	stw	r2,8(sp)
 2001588:	180f883a 	mov	r7,r3
 200158c:	20036b00 	call	20036b0 <vid_draw_box>
    //
  //  RectCopy(&rc, &pDeskInfo->szPalette[BTN_GESTRUE].rc);
  //  vid_draw_box (rc.left, rc.top, rc.right, rc.bottom, BLACK_24, DO_FILL, pDisplay);
}
 2001590:	e037883a 	mov	sp,fp
 2001594:	dfc00117 	ldw	ra,4(sp)
 2001598:	df000017 	ldw	fp,0(sp)
 200159c:	dec00204 	addi	sp,sp,8
 20015a0:	f800283a 	ret

020015a4 <GUI>:

//----------------------------------------------------------------------------------------------------

void GUI(alt_video_display *pDisplay, TOUCH_HANDLE *pTouch){
 20015a4:	deffd004 	addi	sp,sp,-192
 20015a8:	dfc02f15 	stw	ra,188(sp)
 20015ac:	df002e15 	stw	fp,184(sp)
 20015b0:	df002e04 	addi	fp,sp,184
 20015b4:	e13ffe15 	stw	r4,-8(fp)
 20015b8:	e17fff15 	stw	r5,-4(fp)
    // video
    DESK_INFO DeskInfo;
    int X, Y;
    POINT Pt;
    const int nDotSize = DOT_SIZE;
 20015bc:	00800144 	movi	r2,5
 20015c0:	e0bfd615 	stw	r2,-168(fp)
    RECT rcTouch;
    int ColorPen, ButtonId;
    bool UpdatePalette;

    // clean screen
    vid_clean_screen(pDisplay, BLACK_24);
 20015c4:	e13ffe17 	ldw	r4,-8(fp)
 20015c8:	000b883a 	mov	r5,zero
 20015cc:	2002e680 	call	2002e68 <vid_clean_screen>
    
    // Show Terasic Welcome
    GUI_ShowWelcome(pDisplay);
 20015d0:	e13ffe17 	ldw	r4,-8(fp)
 20015d4:	2000e8c0 	call	2000e8c <GUI_ShowWelcome>
    usleep(4*1000*1000);
 20015d8:	01000f74 	movhi	r4,61
 20015dc:	21024004 	addi	r4,r4,2304
 20015e0:	2018e0c0 	call	2018e0c <usleep>
    vid_clean_screen(pDisplay, BLACK_24);
 20015e4:	e13ffe17 	ldw	r4,-8(fp)
 20015e8:	000b883a 	mov	r5,zero
 20015ec:	2002e680 	call	2002e68 <vid_clean_screen>

    GUI_DeskInit(pDisplay, &DeskInfo);
 20015f0:	e0bfd804 	addi	r2,fp,-160
 20015f4:	e13ffe17 	ldw	r4,-8(fp)
 20015f8:	100b883a 	mov	r5,r2
 20015fc:	20010140 	call	2001014 <GUI_DeskInit>
    GUI_DeskDraw(pDisplay, &DeskInfo);
 2001600:	e0bfd804 	addi	r2,fp,-160
 2001604:	e13ffe17 	ldw	r4,-8(fp)
 2001608:	100b883a 	mov	r5,r2
 200160c:	20012780 	call	2001278 <GUI_DeskDraw>
    
    RectCopy(&rcTouch, &DeskInfo.rcPaint);
 2001610:	e0fffa04 	addi	r3,fp,-24
 2001614:	e0bfd804 	addi	r2,fp,-160
 2001618:	10800104 	addi	r2,r2,4
 200161c:	1809883a 	mov	r4,r3
 2001620:	100b883a 	mov	r5,r2
 2001624:	2002ca40 	call	2002ca4 <RectCopy>
    RectInflate(&rcTouch, -nDotSize-2, -nDotSize-2);
 2001628:	00ffff84 	movi	r3,-2
 200162c:	e0bfd617 	ldw	r2,-168(fp)
 2001630:	188bc83a 	sub	r5,r3,r2
 2001634:	00ffff84 	movi	r3,-2
 2001638:	e0bfd617 	ldw	r2,-168(fp)
 200163c:	1885c83a 	sub	r2,r3,r2
 2001640:	e0fffa04 	addi	r3,fp,-24
 2001644:	1809883a 	mov	r4,r3
 2001648:	100d883a 	mov	r6,r2
 200164c:	2002b940 	call	2002b94 <RectInflate>
    
    ColorPen = DeskInfo.szPalette[DeskInfo.Paint_Index].color;
 2001650:	e0bfd817 	ldw	r2,-160(fp)
 2001654:	10800524 	muli	r2,r2,20
 2001658:	e0ffd404 	addi	r3,fp,-176
 200165c:	1885883a 	add	r2,r3,r2
 2001660:	10800d04 	addi	r2,r2,52
 2001664:	10800017 	ldw	r2,0(r2)
 2001668:	e0bfd415 	stw	r2,-176(fp)
   //  printf("ContinuedTime=%d\r\n", ContinuedTime);
   // PtSet(&ptGesture, DeskInfo.szPalette[BTN_GESTRUE].rc.left+5, DeskInfo.szPalette[BTN_GESTRUE].rc.top+5);

    while(1){
            // touch
            if (Touch_GetXY(pTouch, &X, &Y)){
 200166c:	e0fff604 	addi	r3,fp,-40
 2001670:	e0bff704 	addi	r2,fp,-36
 2001674:	e13fff17 	ldw	r4,-4(fp)
 2001678:	180b883a 	mov	r5,r3
 200167c:	100d883a 	mov	r6,r2
 2001680:	200763c0 	call	200763c <Touch_GetXY>
 2001684:	10004d26 	beq	r2,zero,20017bc <GUI+0x218>

                printf("x=%d, y=%d\r\n", X,Y);
 2001688:	e0fff617 	ldw	r3,-40(fp)
 200168c:	e0bff717 	ldw	r2,-36(fp)
 2001690:	010080b4 	movhi	r4,514
 2001694:	210f8304 	addi	r4,r4,15884
 2001698:	180b883a 	mov	r5,r3
 200169c:	100d883a 	mov	r6,r2
 20016a0:	200b5780 	call	200b578 <printf>
                PtSet(&Pt, X, Y);
 20016a4:	e0fff617 	ldw	r3,-40(fp)
 20016a8:	e0bff717 	ldw	r2,-36(fp)
 20016ac:	e13ff804 	addi	r4,fp,-32
 20016b0:	180b883a 	mov	r5,r3
 20016b4:	100d883a 	mov	r6,r2
 20016b8:	2002af80 	call	2002af8 <PtSet>


                //   printf("t:%d, %d\r\n", (int)alt_nticks(), LastTimePt1);
                if ( IsPtInRect(&Pt, &rcTouch)){
 20016bc:	e0fff804 	addi	r3,fp,-32
 20016c0:	e0bffa04 	addi	r2,fp,-24
 20016c4:	1809883a 	mov	r4,r3
 20016c8:	100b883a 	mov	r5,r2
 20016cc:	2002a740 	call	2002a74 <IsPtInRect>
 20016d0:	10000b26 	beq	r2,zero,2001700 <GUI+0x15c>

                    vid_draw_circle(Pt.x, Pt.y, nDotSize, ColorPen, DO_FILL, pDisplay);
 20016d4:	e13ff817 	ldw	r4,-32(fp)
 20016d8:	e0fff917 	ldw	r3,-28(fp)
 20016dc:	00800044 	movi	r2,1
 20016e0:	d8800015 	stw	r2,0(sp)
 20016e4:	e0bffe17 	ldw	r2,-8(fp)
 20016e8:	d8800115 	stw	r2,4(sp)
 20016ec:	180b883a 	mov	r5,r3
 20016f0:	e1bfd617 	ldw	r6,-168(fp)
 20016f4:	e1ffd417 	ldw	r7,-176(fp)
 20016f8:	2003ed40 	call	2003ed4 <vid_draw_circle>
 20016fc:	00002f06 	br	20017bc <GUI+0x218>

                }else if (GUI_CheckButton(&DeskInfo, &Pt) == BTN_CLEAR){
 2001700:	e0ffd804 	addi	r3,fp,-160
 2001704:	e0bff804 	addi	r2,fp,-32
 2001708:	1809883a 	mov	r4,r3
 200170c:	100b883a 	mov	r5,r2
 2001710:	20011e80 	call	20011e8 <GUI_CheckButton>
 2001714:	1000071e 	bne	r2,zero,2001734 <GUI+0x190>
                    GUI_ClearPaintArea(pDisplay, &DeskInfo);
 2001718:	e0bfd804 	addi	r2,fp,-160
 200171c:	e13ffe17 	ldw	r4,-8(fp)
 2001720:	100b883a 	mov	r5,r2
 2001724:	20015280 	call	2001528 <GUI_ClearPaintArea>
                    Touch_EmptyFifo(pTouch);
 2001728:	e13fff17 	ldw	r4,-4(fp)
 200172c:	20076040 	call	2007604 <Touch_EmptyFifo>
 2001730:	00002206 	br	20017bc <GUI+0x218>
                }else {
                    ButtonId = GUI_CheckButton(&DeskInfo, &Pt);
 2001734:	e0ffd804 	addi	r3,fp,-160
 2001738:	e0bff804 	addi	r2,fp,-32
 200173c:	1809883a 	mov	r4,r3
 2001740:	100b883a 	mov	r5,r2
 2001744:	20011e80 	call	20011e8 <GUI_CheckButton>
 2001748:	e0bfd715 	stw	r2,-164(fp)
                    UpdatePalette = FALSE;
 200174c:	e03fd515 	stw	zero,-172(fp)
                    if (ButtonId != BTN_NONE && ButtonId != BTN_CLEAR){
 2001750:	e0bfd717 	ldw	r2,-164(fp)
 2001754:	108001a0 	cmpeqi	r2,r2,6
 2001758:	1000181e 	bne	r2,zero,20017bc <GUI+0x218>
 200175c:	e0bfd717 	ldw	r2,-164(fp)
 2001760:	10001626 	beq	r2,zero,20017bc <GUI+0x218>
                        // chang draw color
                        if ( ButtonId != DeskInfo.Paint_Index ){
 2001764:	e0ffd817 	ldw	r3,-160(fp)
 2001768:	e0bfd717 	ldw	r2,-164(fp)
 200176c:	18800426 	beq	r3,r2,2001780 <GUI+0x1dc>
                            DeskInfo.Paint_Index = ButtonId;
 2001770:	e0bfd717 	ldw	r2,-164(fp)
 2001774:	e0bfd815 	stw	r2,-160(fp)
                            UpdatePalette = TRUE;
 2001778:	00800044 	movi	r2,1
 200177c:	e0bfd515 	stw	r2,-172(fp)
                        }

                        if (UpdatePalette){
 2001780:	e0bfd517 	ldw	r2,-172(fp)
 2001784:	10000d26 	beq	r2,zero,20017bc <GUI+0x218>
                            ColorPen = DeskInfo.szPalette[DeskInfo.Paint_Index].color;
 2001788:	e0bfd817 	ldw	r2,-160(fp)
 200178c:	10800524 	muli	r2,r2,20
 2001790:	e0ffd404 	addi	r3,fp,-176
 2001794:	1885883a 	add	r2,r3,r2
 2001798:	10800d04 	addi	r2,r2,52
 200179c:	10800017 	ldw	r2,0(r2)
 20017a0:	e0bfd415 	stw	r2,-176(fp)
                            GUI_DeskDraw(pDisplay, &DeskInfo);
 20017a4:	e0bfd804 	addi	r2,fp,-160
 20017a8:	e13ffe17 	ldw	r4,-8(fp)
 20017ac:	100b883a 	mov	r5,r2
 20017b0:	20012780 	call	2001278 <GUI_DeskDraw>
                            Touch_EmptyFifo(pTouch);
 20017b4:	e13fff17 	ldw	r4,-4(fp)
 20017b8:	20076040 	call	2007604 <Touch_EmptyFifo>
                        }
                    }
                }
            } // if touch
        } // while
 20017bc:	003fab06 	br	200166c <GUI+0xc8>

020017c0 <ShowInfo>:
#include "../graphic_lib/simple_graphics.h"
#include "../graphic_lib/geometry.h"



void ShowInfo(alt_video_display *pDisplay, char *pText){
 20017c0:	defff904 	addi	sp,sp,-28
 20017c4:	dfc00615 	stw	ra,24(sp)
 20017c8:	df000515 	stw	fp,20(sp)
 20017cc:	df000504 	addi	fp,sp,20
 20017d0:	e13ffe15 	stw	r4,-8(fp)
 20017d4:	e17fff15 	stw	r5,-4(fp)
    vid_print_string_alpha(1, 1, WHITE_24, BLACK_24, tahomabold_20, pDisplay, pText);
 20017d8:	00808134 	movhi	r2,516
 20017dc:	10b8bd04 	addi	r2,r2,-7436
 20017e0:	d8800015 	stw	r2,0(sp)
 20017e4:	e0bffe17 	ldw	r2,-8(fp)
 20017e8:	d8800115 	stw	r2,4(sp)
 20017ec:	e0bfff17 	ldw	r2,-4(fp)
 20017f0:	d8800215 	stw	r2,8(sp)
 20017f4:	01000044 	movi	r4,1
 20017f8:	01400044 	movi	r5,1
 20017fc:	01804034 	movhi	r6,256
 2001800:	31bfffc4 	addi	r6,r6,-1
 2001804:	000f883a 	mov	r7,zero
 2001808:	20054bc0 	call	20054bc <vid_print_string_alpha>
}
 200180c:	e037883a 	mov	sp,fp
 2001810:	dfc00117 	ldw	ra,4(sp)
 2001814:	df000017 	ldw	fp,0(sp)
 2001818:	dec00204 	addi	sp,sp,8
 200181c:	f800283a 	ret

02001820 <VPG_XLine>:


void VPG_XLine(alt_video_display *pDisplay){
 2001820:	defffe04 	addi	sp,sp,-8
 2001824:	df000115 	stw	fp,4(sp)
 2001828:	df000104 	addi	fp,sp,4
 200182c:	e13fff15 	stw	r4,-4(fp)
return ;
 2001830:	0001883a 	nop

    // show text
    ShowInfo(pDisplay, "X Line");


}
 2001834:	e037883a 	mov	sp,fp
 2001838:	df000017 	ldw	fp,0(sp)
 200183c:	dec00104 	addi	sp,sp,4
 2001840:	f800283a 	ret

02001844 <VPG_ColorPanel>:


void VPG_ColorPanel(alt_video_display *pDisplay, alt_u32 Color){
 2001844:	defff204 	addi	sp,sp,-56
 2001848:	dfc00d15 	stw	ra,52(sp)
 200184c:	df000c15 	stw	fp,48(sp)
 2001850:	df000c04 	addi	fp,sp,48
 2001854:	e13ffe15 	stw	r4,-8(fp)
 2001858:	e17fff15 	stw	r5,-4(fp)
    int x, y;
    char szText[32];

    for(y=0;y<pDisplay->height;y++){
 200185c:	e03ff515 	stw	zero,-44(fp)
 2001860:	00001106 	br	20018a8 <VPG_ColorPanel+0x64>
        for(x=0;x<pDisplay->width;x++){
 2001864:	e03ff415 	stw	zero,-48(fp)
 2001868:	00000806 	br	200188c <VPG_ColorPanel+0x48>
        	vid_set_pixel(x,y,Color, pDisplay);
 200186c:	e13ff417 	ldw	r4,-48(fp)
 2001870:	e17ff517 	ldw	r5,-44(fp)
 2001874:	e1bfff17 	ldw	r6,-4(fp)
 2001878:	e1fffe17 	ldw	r7,-8(fp)
 200187c:	20038e80 	call	20038e8 <vid_set_pixel>
void VPG_ColorPanel(alt_video_display *pDisplay, alt_u32 Color){
    int x, y;
    char szText[32];

    for(y=0;y<pDisplay->height;y++){
        for(x=0;x<pDisplay->width;x++){
 2001880:	e0bff417 	ldw	r2,-48(fp)
 2001884:	10800044 	addi	r2,r2,1
 2001888:	e0bff415 	stw	r2,-48(fp)
 200188c:	e0bffe17 	ldw	r2,-8(fp)
 2001890:	10800117 	ldw	r2,4(r2)
 2001894:	e0fff417 	ldw	r3,-48(fp)
 2001898:	18bff416 	blt	r3,r2,200186c <VPG_ColorPanel+0x28>

void VPG_ColorPanel(alt_video_display *pDisplay, alt_u32 Color){
    int x, y;
    char szText[32];

    for(y=0;y<pDisplay->height;y++){
 200189c:	e0bff517 	ldw	r2,-44(fp)
 20018a0:	10800044 	addi	r2,r2,1
 20018a4:	e0bff515 	stw	r2,-44(fp)
 20018a8:	e0bffe17 	ldw	r2,-8(fp)
 20018ac:	10800217 	ldw	r2,8(r2)
 20018b0:	e0fff517 	ldw	r3,-44(fp)
 20018b4:	18bfeb16 	blt	r3,r2,2001864 <VPG_ColorPanel+0x20>
        	vid_set_pixel(x,y,Color, pDisplay);
        }
    }

    // show text
    sprintf(szText,"Panel: %08xh", (unsigned int) Color);
 20018b8:	e0bff604 	addi	r2,fp,-40
 20018bc:	1009883a 	mov	r4,r2
 20018c0:	014080b4 	movhi	r5,514
 20018c4:	294f8704 	addi	r5,r5,15900
 20018c8:	e1bfff17 	ldw	r6,-4(fp)
 20018cc:	200b7980 	call	200b798 <sprintf>
    ShowInfo(pDisplay, szText);
 20018d0:	e0bff604 	addi	r2,fp,-40
 20018d4:	e13ffe17 	ldw	r4,-8(fp)
 20018d8:	100b883a 	mov	r5,r2
 20018dc:	20017c00 	call	20017c0 <ShowInfo>



}
 20018e0:	e037883a 	mov	sp,fp
 20018e4:	dfc00117 	ldw	ra,4(sp)
 20018e8:	df000017 	ldw	fp,0(sp)
 20018ec:	dec00204 	addi	sp,sp,8
 20018f0:	f800283a 	ret

020018f4 <VPG_Grid>:

void VPG_Grid(alt_video_display *pDisplay, alt_u8 GridSize){
 20018f4:	defff104 	addi	sp,sp,-60
 20018f8:	dfc00e15 	stw	ra,56(sp)
 20018fc:	df000d15 	stw	fp,52(sp)
 2001900:	df000d04 	addi	fp,sp,52
 2001904:	e13ffe15 	stw	r4,-8(fp)
 2001908:	2805883a 	mov	r2,r5
 200190c:	e0bfff05 	stb	r2,-4(fp)
    int x,y;
    alt_u32 Value32;
    char szText[32];


    for(y=0;y<pDisplay->height;y++){
 2001910:	e03ff415 	stw	zero,-48(fp)
 2001914:	00002206 	br	20019a0 <VPG_Grid+0xac>
        for(x=0;x<pDisplay->width;x++){
 2001918:	e03ff315 	stw	zero,-52(fp)
 200191c:	00001906 	br	2001984 <VPG_Grid+0x90>
            if (x%GridSize == 0 || y%GridSize == 0)
 2001920:	e0bfff03 	ldbu	r2,-4(fp)
 2001924:	e0fff317 	ldw	r3,-52(fp)
 2001928:	1809883a 	mov	r4,r3
 200192c:	100b883a 	mov	r5,r2
 2001930:	20086ac0 	call	20086ac <__modsi3>
 2001934:	10000626 	beq	r2,zero,2001950 <VPG_Grid+0x5c>
 2001938:	e0bfff03 	ldbu	r2,-4(fp)
 200193c:	e0fff417 	ldw	r3,-48(fp)
 2001940:	1809883a 	mov	r4,r3
 2001944:	100b883a 	mov	r5,r2
 2001948:	20086ac0 	call	20086ac <__modsi3>
 200194c:	1000041e 	bne	r2,zero,2001960 <VPG_Grid+0x6c>
                Value32 = WHITE_24;
 2001950:	00804034 	movhi	r2,256
 2001954:	10bfffc4 	addi	r2,r2,-1
 2001958:	e0bff515 	stw	r2,-44(fp)
 200195c:	00000106 	br	2001964 <VPG_Grid+0x70>
            else
                Value32 = BLACK_24;
 2001960:	e03ff515 	stw	zero,-44(fp)
            vid_set_pixel(x,y,Value32, pDisplay);
 2001964:	e13ff317 	ldw	r4,-52(fp)
 2001968:	e17ff417 	ldw	r5,-48(fp)
 200196c:	e1bff517 	ldw	r6,-44(fp)
 2001970:	e1fffe17 	ldw	r7,-8(fp)
 2001974:	20038e80 	call	20038e8 <vid_set_pixel>
    alt_u32 Value32;
    char szText[32];


    for(y=0;y<pDisplay->height;y++){
        for(x=0;x<pDisplay->width;x++){
 2001978:	e0bff317 	ldw	r2,-52(fp)
 200197c:	10800044 	addi	r2,r2,1
 2001980:	e0bff315 	stw	r2,-52(fp)
 2001984:	e0bffe17 	ldw	r2,-8(fp)
 2001988:	10800117 	ldw	r2,4(r2)
 200198c:	e0fff317 	ldw	r3,-52(fp)
 2001990:	18bfe316 	blt	r3,r2,2001920 <VPG_Grid+0x2c>
    int x,y;
    alt_u32 Value32;
    char szText[32];


    for(y=0;y<pDisplay->height;y++){
 2001994:	e0bff417 	ldw	r2,-48(fp)
 2001998:	10800044 	addi	r2,r2,1
 200199c:	e0bff415 	stw	r2,-48(fp)
 20019a0:	e0bffe17 	ldw	r2,-8(fp)
 20019a4:	10800217 	ldw	r2,8(r2)
 20019a8:	e0fff417 	ldw	r3,-48(fp)
 20019ac:	18bfda16 	blt	r3,r2,2001918 <VPG_Grid+0x24>
            vid_set_pixel(x,y,Value32, pDisplay);
        }

    }
    // show text
    sprintf(szText,"Grid%d", GridSize);
 20019b0:	e0bfff03 	ldbu	r2,-4(fp)
 20019b4:	e0fff604 	addi	r3,fp,-40
 20019b8:	1809883a 	mov	r4,r3
 20019bc:	014080b4 	movhi	r5,514
 20019c0:	294f8b04 	addi	r5,r5,15916
 20019c4:	100d883a 	mov	r6,r2
 20019c8:	200b7980 	call	200b798 <sprintf>
    ShowInfo(pDisplay, szText);
 20019cc:	e0bff604 	addi	r2,fp,-40
 20019d0:	e13ffe17 	ldw	r4,-8(fp)
 20019d4:	100b883a 	mov	r5,r2
 20019d8:	20017c00 	call	20017c0 <ShowInfo>

}
 20019dc:	e037883a 	mov	sp,fp
 20019e0:	dfc00117 	ldw	ra,4(sp)
 20019e4:	df000017 	ldw	fp,0(sp)
 20019e8:	dec00204 	addi	sp,sp,8
 20019ec:	f800283a 	ret

020019f0 <VPG_VGrid>:

void VPG_VGrid(alt_video_display *pDisplay, alt_u8 GridSize){
 20019f0:	defff104 	addi	sp,sp,-60
 20019f4:	dfc00e15 	stw	ra,56(sp)
 20019f8:	df000d15 	stw	fp,52(sp)
 20019fc:	df000d04 	addi	fp,sp,52
 2001a00:	e13ffe15 	stw	r4,-8(fp)
 2001a04:	2805883a 	mov	r2,r5
 2001a08:	e0bfff05 	stb	r2,-4(fp)
    int x,y;
    alt_u32 Value32;
    char szText[32];


    for(y=0;y<pDisplay->height;y++){
 2001a0c:	e03ff415 	stw	zero,-48(fp)
 2001a10:	00001c06 	br	2001a84 <VPG_VGrid+0x94>
        for(x=0;x<pDisplay->width;x++){
 2001a14:	e03ff315 	stw	zero,-52(fp)
 2001a18:	00001306 	br	2001a68 <VPG_VGrid+0x78>
            if (x%GridSize == 0)
 2001a1c:	e0bfff03 	ldbu	r2,-4(fp)
 2001a20:	e0fff317 	ldw	r3,-52(fp)
 2001a24:	1809883a 	mov	r4,r3
 2001a28:	100b883a 	mov	r5,r2
 2001a2c:	20086ac0 	call	20086ac <__modsi3>
 2001a30:	1000041e 	bne	r2,zero,2001a44 <VPG_VGrid+0x54>
                Value32 = WHITE_24;
 2001a34:	00804034 	movhi	r2,256
 2001a38:	10bfffc4 	addi	r2,r2,-1
 2001a3c:	e0bff515 	stw	r2,-44(fp)
 2001a40:	00000106 	br	2001a48 <VPG_VGrid+0x58>
            else
                Value32 = BLACK_24;
 2001a44:	e03ff515 	stw	zero,-44(fp)
            vid_set_pixel(x,y,Value32, pDisplay);
 2001a48:	e13ff317 	ldw	r4,-52(fp)
 2001a4c:	e17ff417 	ldw	r5,-48(fp)
 2001a50:	e1bff517 	ldw	r6,-44(fp)
 2001a54:	e1fffe17 	ldw	r7,-8(fp)
 2001a58:	20038e80 	call	20038e8 <vid_set_pixel>
    alt_u32 Value32;
    char szText[32];


    for(y=0;y<pDisplay->height;y++){
        for(x=0;x<pDisplay->width;x++){
 2001a5c:	e0bff317 	ldw	r2,-52(fp)
 2001a60:	10800044 	addi	r2,r2,1
 2001a64:	e0bff315 	stw	r2,-52(fp)
 2001a68:	e0bffe17 	ldw	r2,-8(fp)
 2001a6c:	10800117 	ldw	r2,4(r2)
 2001a70:	e0fff317 	ldw	r3,-52(fp)
 2001a74:	18bfe916 	blt	r3,r2,2001a1c <VPG_VGrid+0x2c>
    int x,y;
    alt_u32 Value32;
    char szText[32];


    for(y=0;y<pDisplay->height;y++){
 2001a78:	e0bff417 	ldw	r2,-48(fp)
 2001a7c:	10800044 	addi	r2,r2,1
 2001a80:	e0bff415 	stw	r2,-48(fp)
 2001a84:	e0bffe17 	ldw	r2,-8(fp)
 2001a88:	10800217 	ldw	r2,8(r2)
 2001a8c:	e0fff417 	ldw	r3,-48(fp)
 2001a90:	18bfe016 	blt	r3,r2,2001a14 <VPG_VGrid+0x24>
            vid_set_pixel(x,y,Value32, pDisplay);
        }

    }
    // show text
    sprintf(szText,"VGrid%d", GridSize);
 2001a94:	e0bfff03 	ldbu	r2,-4(fp)
 2001a98:	e0fff604 	addi	r3,fp,-40
 2001a9c:	1809883a 	mov	r4,r3
 2001aa0:	014080b4 	movhi	r5,514
 2001aa4:	294f8d04 	addi	r5,r5,15924
 2001aa8:	100d883a 	mov	r6,r2
 2001aac:	200b7980 	call	200b798 <sprintf>
    ShowInfo(pDisplay, szText);
 2001ab0:	e0bff604 	addi	r2,fp,-40
 2001ab4:	e13ffe17 	ldw	r4,-8(fp)
 2001ab8:	100b883a 	mov	r5,r2
 2001abc:	20017c00 	call	20017c0 <ShowInfo>

}
 2001ac0:	e037883a 	mov	sp,fp
 2001ac4:	dfc00117 	ldw	ra,4(sp)
 2001ac8:	df000017 	ldw	fp,0(sp)
 2001acc:	dec00204 	addi	sp,sp,8
 2001ad0:	f800283a 	ret

02001ad4 <VPG_HGrid>:

void VPG_HGrid(alt_video_display *pDisplay, alt_u8 GridSize){
 2001ad4:	defff104 	addi	sp,sp,-60
 2001ad8:	dfc00e15 	stw	ra,56(sp)
 2001adc:	df000d15 	stw	fp,52(sp)
 2001ae0:	df000d04 	addi	fp,sp,52
 2001ae4:	e13ffe15 	stw	r4,-8(fp)
 2001ae8:	2805883a 	mov	r2,r5
 2001aec:	e0bfff05 	stb	r2,-4(fp)
    int x,y;
    alt_u32 Value32;
    char szText[32];

    for(y=0;y<pDisplay->height;y++){
 2001af0:	e03ff415 	stw	zero,-48(fp)
 2001af4:	00001c06 	br	2001b68 <VPG_HGrid+0x94>
        for(x=0;x<pDisplay->width;x++){
 2001af8:	e03ff315 	stw	zero,-52(fp)
 2001afc:	00001306 	br	2001b4c <VPG_HGrid+0x78>
            if (y%GridSize == 0)
 2001b00:	e0bfff03 	ldbu	r2,-4(fp)
 2001b04:	e0fff417 	ldw	r3,-48(fp)
 2001b08:	1809883a 	mov	r4,r3
 2001b0c:	100b883a 	mov	r5,r2
 2001b10:	20086ac0 	call	20086ac <__modsi3>
 2001b14:	1000041e 	bne	r2,zero,2001b28 <VPG_HGrid+0x54>
                Value32 = WHITE_24;
 2001b18:	00804034 	movhi	r2,256
 2001b1c:	10bfffc4 	addi	r2,r2,-1
 2001b20:	e0bff515 	stw	r2,-44(fp)
 2001b24:	00000106 	br	2001b2c <VPG_HGrid+0x58>
            else
                Value32 = BLACK_24;
 2001b28:	e03ff515 	stw	zero,-44(fp)
            vid_set_pixel(x,y,Value32, pDisplay);
 2001b2c:	e13ff317 	ldw	r4,-52(fp)
 2001b30:	e17ff417 	ldw	r5,-48(fp)
 2001b34:	e1bff517 	ldw	r6,-44(fp)
 2001b38:	e1fffe17 	ldw	r7,-8(fp)
 2001b3c:	20038e80 	call	20038e8 <vid_set_pixel>
    int x,y;
    alt_u32 Value32;
    char szText[32];

    for(y=0;y<pDisplay->height;y++){
        for(x=0;x<pDisplay->width;x++){
 2001b40:	e0bff317 	ldw	r2,-52(fp)
 2001b44:	10800044 	addi	r2,r2,1
 2001b48:	e0bff315 	stw	r2,-52(fp)
 2001b4c:	e0bffe17 	ldw	r2,-8(fp)
 2001b50:	10800117 	ldw	r2,4(r2)
 2001b54:	e0fff317 	ldw	r3,-52(fp)
 2001b58:	18bfe916 	blt	r3,r2,2001b00 <VPG_HGrid+0x2c>
void VPG_HGrid(alt_video_display *pDisplay, alt_u8 GridSize){
    int x,y;
    alt_u32 Value32;
    char szText[32];

    for(y=0;y<pDisplay->height;y++){
 2001b5c:	e0bff417 	ldw	r2,-48(fp)
 2001b60:	10800044 	addi	r2,r2,1
 2001b64:	e0bff415 	stw	r2,-48(fp)
 2001b68:	e0bffe17 	ldw	r2,-8(fp)
 2001b6c:	10800217 	ldw	r2,8(r2)
 2001b70:	e0fff417 	ldw	r3,-48(fp)
 2001b74:	18bfe016 	blt	r3,r2,2001af8 <VPG_HGrid+0x24>
            vid_set_pixel(x,y,Value32, pDisplay);
        }

    }
    // show text
    sprintf(szText,"HGrid%d", GridSize);
 2001b78:	e0bfff03 	ldbu	r2,-4(fp)
 2001b7c:	e0fff604 	addi	r3,fp,-40
 2001b80:	1809883a 	mov	r4,r3
 2001b84:	014080b4 	movhi	r5,514
 2001b88:	294f8f04 	addi	r5,r5,15932
 2001b8c:	100d883a 	mov	r6,r2
 2001b90:	200b7980 	call	200b798 <sprintf>
    ShowInfo(pDisplay, szText);
 2001b94:	e0bff604 	addi	r2,fp,-40
 2001b98:	e13ffe17 	ldw	r4,-8(fp)
 2001b9c:	100b883a 	mov	r5,r2
 2001ba0:	20017c00 	call	20017c0 <ShowInfo>

}
 2001ba4:	e037883a 	mov	sp,fp
 2001ba8:	dfc00117 	ldw	ra,4(sp)
 2001bac:	df000017 	ldw	fp,0(sp)
 2001bb0:	dec00204 	addi	sp,sp,8
 2001bb4:	f800283a 	ret

02001bb8 <VPG_ColorBar>:




void VPG_ColorBar(alt_video_display *pDisplay){
 2001bb8:	defffa04 	addi	sp,sp,-24
 2001bbc:	dfc00515 	stw	ra,20(sp)
 2001bc0:	df000415 	stw	fp,16(sp)
 2001bc4:	df000404 	addi	fp,sp,16
 2001bc8:	e13fff15 	stw	r4,-4(fp)
    int x,y;
    alt_u32 Value32;

    for(y=0;y<pDisplay->height;y++){
 2001bcc:	e03ffd15 	stw	zero,-12(fp)
 2001bd0:	00005c06 	br	2001d44 <VPG_ColorBar+0x18c>
        for(x=0;x<pDisplay->width;x++){
 2001bd4:	e03ffc15 	stw	zero,-16(fp)
 2001bd8:	00005306 	br	2001d28 <VPG_ColorBar+0x170>
            if (x == 0 || y == 0 || x == pDisplay->width-1 || y == pDisplay->height-1){
 2001bdc:	e0bffc17 	ldw	r2,-16(fp)
 2001be0:	10000c26 	beq	r2,zero,2001c14 <VPG_ColorBar+0x5c>
 2001be4:	e0bffd17 	ldw	r2,-12(fp)
 2001be8:	10000a26 	beq	r2,zero,2001c14 <VPG_ColorBar+0x5c>
 2001bec:	e0bfff17 	ldw	r2,-4(fp)
 2001bf0:	10800117 	ldw	r2,4(r2)
 2001bf4:	10ffffc4 	addi	r3,r2,-1
 2001bf8:	e0bffc17 	ldw	r2,-16(fp)
 2001bfc:	18800526 	beq	r3,r2,2001c14 <VPG_ColorBar+0x5c>
 2001c00:	e0bfff17 	ldw	r2,-4(fp)
 2001c04:	10800217 	ldw	r2,8(r2)
 2001c08:	10ffffc4 	addi	r3,r2,-1
 2001c0c:	e0bffd17 	ldw	r2,-12(fp)
 2001c10:	1880041e 	bne	r3,r2,2001c24 <VPG_ColorBar+0x6c>
                Value32 = WHITE_24;
 2001c14:	00804034 	movhi	r2,256
 2001c18:	10bfffc4 	addi	r2,r2,-1
 2001c1c:	e0bffe15 	stw	r2,-8(fp)
 2001c20:	00003906 	br	2001d08 <VPG_ColorBar+0x150>
            }else if (y < pDisplay->height/4){
 2001c24:	e0bfff17 	ldw	r2,-4(fp)
 2001c28:	10800217 	ldw	r2,8(r2)
 2001c2c:	1000010e 	bge	r2,zero,2001c34 <VPG_ColorBar+0x7c>
 2001c30:	108000c4 	addi	r2,r2,3
 2001c34:	1005d0ba 	srai	r2,r2,2
 2001c38:	1007883a 	mov	r3,r2
 2001c3c:	e0bffd17 	ldw	r2,-12(fp)
 2001c40:	10c0040e 	bge	r2,r3,2001c54 <VPG_ColorBar+0x9c>
                // red
                Value32 = x & 0xFF;
 2001c44:	e0bffc17 	ldw	r2,-16(fp)
 2001c48:	10803fcc 	andi	r2,r2,255
 2001c4c:	e0bffe15 	stw	r2,-8(fp)
 2001c50:	00002d06 	br	2001d08 <VPG_ColorBar+0x150>
            }else if (y < pDisplay->height/2){
 2001c54:	e0bfff17 	ldw	r2,-4(fp)
 2001c58:	10800217 	ldw	r2,8(r2)
 2001c5c:	1006d7fa 	srli	r3,r2,31
 2001c60:	1885883a 	add	r2,r3,r2
 2001c64:	1005d07a 	srai	r2,r2,1
 2001c68:	1007883a 	mov	r3,r2
 2001c6c:	e0bffd17 	ldw	r2,-12(fp)
 2001c70:	10c0050e 	bge	r2,r3,2001c88 <VPG_ColorBar+0xd0>
                Value32 = (x & 0xFF) << 8;
 2001c74:	e0bffc17 	ldw	r2,-16(fp)
 2001c78:	1004923a 	slli	r2,r2,8
 2001c7c:	10bfffcc 	andi	r2,r2,65535
 2001c80:	e0bffe15 	stw	r2,-8(fp)
 2001c84:	00002006 	br	2001d08 <VPG_ColorBar+0x150>
            }else if (y < pDisplay->height*3/4){
 2001c88:	e0bfff17 	ldw	r2,-4(fp)
 2001c8c:	10c00217 	ldw	r3,8(r2)
 2001c90:	1805883a 	mov	r2,r3
 2001c94:	1085883a 	add	r2,r2,r2
 2001c98:	10c5883a 	add	r2,r2,r3
 2001c9c:	1000010e 	bge	r2,zero,2001ca4 <VPG_ColorBar+0xec>
 2001ca0:	108000c4 	addi	r2,r2,3
 2001ca4:	1005d0ba 	srai	r2,r2,2
 2001ca8:	1007883a 	mov	r3,r2
 2001cac:	e0bffd17 	ldw	r2,-12(fp)
 2001cb0:	10c0050e 	bge	r2,r3,2001cc8 <VPG_ColorBar+0x110>
                Value32 = (x & 0xFF) << 16;
 2001cb4:	e0bffc17 	ldw	r2,-16(fp)
 2001cb8:	10803fcc 	andi	r2,r2,255
 2001cbc:	1004943a 	slli	r2,r2,16
 2001cc0:	e0bffe15 	stw	r2,-8(fp)
 2001cc4:	00001006 	br	2001d08 <VPG_ColorBar+0x150>
            }else{
                Value32 = x & 0xFF;
 2001cc8:	e0bffc17 	ldw	r2,-16(fp)
 2001ccc:	10803fcc 	andi	r2,r2,255
 2001cd0:	e0bffe15 	stw	r2,-8(fp)
                Value32 |= (x & 0xFF) << 8;
 2001cd4:	e0bffc17 	ldw	r2,-16(fp)
 2001cd8:	1004923a 	slli	r2,r2,8
 2001cdc:	10bfffcc 	andi	r2,r2,65535
 2001ce0:	e0fffe17 	ldw	r3,-8(fp)
 2001ce4:	1884b03a 	or	r2,r3,r2
 2001ce8:	e0bffe15 	stw	r2,-8(fp)
                Value32 |= (x & 0xFF) << 16;
 2001cec:	e0bffc17 	ldw	r2,-16(fp)
 2001cf0:	10803fcc 	andi	r2,r2,255
 2001cf4:	1004943a 	slli	r2,r2,16
 2001cf8:	1007883a 	mov	r3,r2
 2001cfc:	e0bffe17 	ldw	r2,-8(fp)
 2001d00:	10c4b03a 	or	r2,r2,r3
 2001d04:	e0bffe15 	stw	r2,-8(fp)
            }
            vid_set_pixel(x,y,Value32, pDisplay);
 2001d08:	e13ffc17 	ldw	r4,-16(fp)
 2001d0c:	e17ffd17 	ldw	r5,-12(fp)
 2001d10:	e1bffe17 	ldw	r6,-8(fp)
 2001d14:	e1ffff17 	ldw	r7,-4(fp)
 2001d18:	20038e80 	call	20038e8 <vid_set_pixel>
void VPG_ColorBar(alt_video_display *pDisplay){
    int x,y;
    alt_u32 Value32;

    for(y=0;y<pDisplay->height;y++){
        for(x=0;x<pDisplay->width;x++){
 2001d1c:	e0bffc17 	ldw	r2,-16(fp)
 2001d20:	10800044 	addi	r2,r2,1
 2001d24:	e0bffc15 	stw	r2,-16(fp)
 2001d28:	e0bfff17 	ldw	r2,-4(fp)
 2001d2c:	10800117 	ldw	r2,4(r2)
 2001d30:	e0fffc17 	ldw	r3,-16(fp)
 2001d34:	18bfa916 	blt	r3,r2,2001bdc <VPG_ColorBar+0x24>

void VPG_ColorBar(alt_video_display *pDisplay){
    int x,y;
    alt_u32 Value32;

    for(y=0;y<pDisplay->height;y++){
 2001d38:	e0bffd17 	ldw	r2,-12(fp)
 2001d3c:	10800044 	addi	r2,r2,1
 2001d40:	e0bffd15 	stw	r2,-12(fp)
 2001d44:	e0bfff17 	ldw	r2,-4(fp)
 2001d48:	10800217 	ldw	r2,8(r2)
 2001d4c:	e0fffd17 	ldw	r3,-12(fp)
 2001d50:	18bfa016 	blt	r3,r2,2001bd4 <VPG_ColorBar+0x1c>

        }

    }

}
 2001d54:	e037883a 	mov	sp,fp
 2001d58:	dfc00117 	ldw	ra,4(sp)
 2001d5c:	df000017 	ldw	fp,0(sp)
 2001d60:	dec00204 	addi	sp,sp,8
 2001d64:	f800283a 	ret

02001d68 <GUI_ShowPAT>:


void GUI_ShowPAT(alt_video_display *pDisplay, int PatId){
 2001d68:	defffc04 	addi	sp,sp,-16
 2001d6c:	dfc00315 	stw	ra,12(sp)
 2001d70:	df000215 	stw	fp,8(sp)
 2001d74:	df000204 	addi	fp,sp,8
 2001d78:	e13ffe15 	stw	r4,-8(fp)
 2001d7c:	e17fff15 	stw	r5,-4(fp)

                switch(PatId){
 2001d80:	e0bfff17 	ldw	r2,-4(fp)
 2001d84:	108003e8 	cmpgeui	r2,r2,15
 2001d88:	1000511e 	bne	r2,zero,2001ed0 <GUI_ShowPAT+0x168>
 2001d8c:	e0bfff17 	ldw	r2,-4(fp)
 2001d90:	100690ba 	slli	r3,r2,2
 2001d94:	00808034 	movhi	r2,512
 2001d98:	10876a04 	addi	r2,r2,7592
 2001d9c:	1885883a 	add	r2,r3,r2
 2001da0:	10800017 	ldw	r2,0(r2)
 2001da4:	1000683a 	jmp	r2
 2001da8:	02001de4 	muli	r8,zero,119
 2001dac:	02001df0 	cmpltui	r8,zero,119
 2001db0:	02001e04 	movi	r8,120
 2001db4:	02001e14 	movui	r8,120
 2001db8:	02001e24 	muli	r8,zero,120
 2001dbc:	02001e34 	movhi	r8,120
 2001dc0:	02001e40 	call	2001e4 <__alt_mem_snake_mem+0x1f01e4>
 2001dc4:	02001e50 	cmplti	r8,zero,121
 2001dc8:	02001e60 	cmpeqi	r8,zero,121
 2001dcc:	02001e70 	cmpltui	r8,zero,121
 2001dd0:	02001e80 	call	2001e8 <__alt_mem_snake_mem+0x1f01e8>
 2001dd4:	02001e90 	cmplti	r8,zero,122
 2001dd8:	02001ea0 	cmpeqi	r8,zero,122
 2001ddc:	02001eb0 	cmpltui	r8,zero,122
 2001de0:	02001ec0 	call	2001ec <__alt_mem_snake_mem+0x1f01ec>
                    case 0: VPG_ColorBar(pDisplay); break;
 2001de4:	e13ffe17 	ldw	r4,-8(fp)
 2001de8:	2001bb80 	call	2001bb8 <VPG_ColorBar>
 2001dec:	00003806 	br	2001ed0 <GUI_ShowPAT+0x168>
                    case 1: VPG_ColorPanel(pDisplay, WHITE_24); break;
 2001df0:	e13ffe17 	ldw	r4,-8(fp)
 2001df4:	01404034 	movhi	r5,256
 2001df8:	297fffc4 	addi	r5,r5,-1
 2001dfc:	20018440 	call	2001844 <VPG_ColorPanel>
 2001e00:	00003306 	br	2001ed0 <GUI_ShowPAT+0x168>
                    case 2: VPG_ColorPanel(pDisplay, RED_24); break;
 2001e04:	e13ffe17 	ldw	r4,-8(fp)
 2001e08:	01403ff4 	movhi	r5,255
 2001e0c:	20018440 	call	2001844 <VPG_ColorPanel>
 2001e10:	00002f06 	br	2001ed0 <GUI_ShowPAT+0x168>
                    case 3: VPG_ColorPanel(pDisplay, GREEN_24); break;
 2001e14:	e13ffe17 	ldw	r4,-8(fp)
 2001e18:	01600014 	movui	r5,32768
 2001e1c:	20018440 	call	2001844 <VPG_ColorPanel>
 2001e20:	00002b06 	br	2001ed0 <GUI_ShowPAT+0x168>
                    case 4: VPG_ColorPanel(pDisplay, BLUE_24); break;
 2001e24:	e13ffe17 	ldw	r4,-8(fp)
 2001e28:	01403fc4 	movi	r5,255
 2001e2c:	20018440 	call	2001844 <VPG_ColorPanel>
 2001e30:	00002706 	br	2001ed0 <GUI_ShowPAT+0x168>
                    case 5: VPG_XLine(pDisplay); break;
 2001e34:	e13ffe17 	ldw	r4,-8(fp)
 2001e38:	20018200 	call	2001820 <VPG_XLine>
 2001e3c:	00002406 	br	2001ed0 <GUI_ShowPAT+0x168>
                    case 6: VPG_VGrid(pDisplay, 2); break;
 2001e40:	e13ffe17 	ldw	r4,-8(fp)
 2001e44:	01400084 	movi	r5,2
 2001e48:	20019f00 	call	20019f0 <VPG_VGrid>
 2001e4c:	00002006 	br	2001ed0 <GUI_ShowPAT+0x168>
                    case 7: VPG_VGrid(pDisplay, 4); break;
 2001e50:	e13ffe17 	ldw	r4,-8(fp)
 2001e54:	01400104 	movi	r5,4
 2001e58:	20019f00 	call	20019f0 <VPG_VGrid>
 2001e5c:	00001c06 	br	2001ed0 <GUI_ShowPAT+0x168>
                    case 8: VPG_VGrid(pDisplay, 8); break;
 2001e60:	e13ffe17 	ldw	r4,-8(fp)
 2001e64:	01400204 	movi	r5,8
 2001e68:	20019f00 	call	20019f0 <VPG_VGrid>
 2001e6c:	00001806 	br	2001ed0 <GUI_ShowPAT+0x168>
                    case 9: VPG_HGrid(pDisplay, 2); break;
 2001e70:	e13ffe17 	ldw	r4,-8(fp)
 2001e74:	01400084 	movi	r5,2
 2001e78:	2001ad40 	call	2001ad4 <VPG_HGrid>
 2001e7c:	00001406 	br	2001ed0 <GUI_ShowPAT+0x168>
                    case 10: VPG_HGrid(pDisplay, 4); break;
 2001e80:	e13ffe17 	ldw	r4,-8(fp)
 2001e84:	01400104 	movi	r5,4
 2001e88:	2001ad40 	call	2001ad4 <VPG_HGrid>
 2001e8c:	00001006 	br	2001ed0 <GUI_ShowPAT+0x168>
                    case 11: VPG_HGrid(pDisplay, 8); break;
 2001e90:	e13ffe17 	ldw	r4,-8(fp)
 2001e94:	01400204 	movi	r5,8
 2001e98:	2001ad40 	call	2001ad4 <VPG_HGrid>
 2001e9c:	00000c06 	br	2001ed0 <GUI_ShowPAT+0x168>
                    case 12: VPG_Grid(pDisplay, 2); break;
 2001ea0:	e13ffe17 	ldw	r4,-8(fp)
 2001ea4:	01400084 	movi	r5,2
 2001ea8:	20018f40 	call	20018f4 <VPG_Grid>
 2001eac:	00000806 	br	2001ed0 <GUI_ShowPAT+0x168>
                    case 13: VPG_Grid(pDisplay, 4); break;
 2001eb0:	e13ffe17 	ldw	r4,-8(fp)
 2001eb4:	01400104 	movi	r5,4
 2001eb8:	20018f40 	call	20018f4 <VPG_Grid>
 2001ebc:	00000406 	br	2001ed0 <GUI_ShowPAT+0x168>
                    case 14: VPG_Grid(pDisplay, 8); break;
 2001ec0:	e13ffe17 	ldw	r4,-8(fp)
 2001ec4:	01400204 	movi	r5,8
 2001ec8:	20018f40 	call	20018f4 <VPG_Grid>
 2001ecc:	0001883a 	nop
                }

}
 2001ed0:	e037883a 	mov	sp,fp
 2001ed4:	dfc00117 	ldw	ra,4(sp)
 2001ed8:	df000017 	ldw	fp,0(sp)
 2001edc:	dec00204 	addi	sp,sp,8
 2001ee0:	f800283a 	ret

02001ee4 <GUI_VPG>:

void GUI_VPG(alt_video_display *pDisplay, TOUCH_HANDLE *pTouch){
 2001ee4:	defff904 	addi	sp,sp,-28
 2001ee8:	dfc00615 	stw	ra,24(sp)
 2001eec:	df000515 	stw	fp,20(sp)
 2001ef0:	df000504 	addi	fp,sp,20
 2001ef4:	e13ffe15 	stw	r4,-8(fp)
 2001ef8:	e17fff15 	stw	r5,-4(fp)
	int X, Y;
	int PatId = 0;
 2001efc:	e03ffb15 	stw	zero,-20(fp)

    // clean screen
    vid_clean_screen(pDisplay, BLACK_24);
 2001f00:	e13ffe17 	ldw	r4,-8(fp)
 2001f04:	000b883a 	mov	r5,zero
 2001f08:	2002e680 	call	2002e68 <vid_clean_screen>


    VPG_ColorBar(pDisplay);
 2001f0c:	e13ffe17 	ldw	r4,-8(fp)
 2001f10:	2001bb80 	call	2001bb8 <VPG_ColorBar>

    GUI_ShowPAT(pDisplay, PatId);
 2001f14:	e13ffe17 	ldw	r4,-8(fp)
 2001f18:	e17ffb17 	ldw	r5,-20(fp)
 2001f1c:	2001d680 	call	2001d68 <GUI_ShowPAT>

    while(1){
        if (Touch_GetXY(pTouch, &X, &Y)){
 2001f20:	e0fffc04 	addi	r3,fp,-16
 2001f24:	e0bffd04 	addi	r2,fp,-12
 2001f28:	e13fff17 	ldw	r4,-4(fp)
 2001f2c:	180b883a 	mov	r5,r3
 2001f30:	100d883a 	mov	r6,r2
 2001f34:	200763c0 	call	200763c <Touch_GetXY>
 2001f38:	10001326 	beq	r2,zero,2001f88 <GUI_VPG+0xa4>
            //printf(".");

            // change pattern
            PatId++;
 2001f3c:	e0bffb17 	ldw	r2,-20(fp)
 2001f40:	10800044 	addi	r2,r2,1
 2001f44:	e0bffb15 	stw	r2,-20(fp)
            if (PatId > 14)
 2001f48:	e0bffb17 	ldw	r2,-20(fp)
 2001f4c:	108003d0 	cmplti	r2,r2,15
 2001f50:	1000011e 	bne	r2,zero,2001f58 <GUI_VPG+0x74>
                PatId = 0;
 2001f54:	e03ffb15 	stw	zero,-20(fp)

            printf("PatId=%d\r\n", PatId);
 2001f58:	010080b4 	movhi	r4,514
 2001f5c:	210f9104 	addi	r4,r4,15940
 2001f60:	e17ffb17 	ldw	r5,-20(fp)
 2001f64:	200b5780 	call	200b578 <printf>
            GUI_ShowPAT(pDisplay, PatId);
 2001f68:	e13ffe17 	ldw	r4,-8(fp)
 2001f6c:	e17ffb17 	ldw	r5,-20(fp)
 2001f70:	2001d680 	call	2001d68 <GUI_ShowPAT>
            usleep(300*1000); // debounce
 2001f74:	01000174 	movhi	r4,5
 2001f78:	2124f804 	addi	r4,r4,-27680
 2001f7c:	2018e0c0 	call	2018e0c <usleep>
            Touch_EmptyFifo( pTouch);
 2001f80:	e13fff17 	ldw	r4,-4(fp)
 2001f84:	20076040 	call	2007604 <Touch_EmptyFifo>
        }
    }
 2001f88:	003fe506 	br	2001f20 <GUI_VPG+0x3c>

02001f8c <Delay_Ms>:
When  D/CX=0,  D [17:0] bits are commands.
*/


void Delay_Ms(alt_u16 count_ms)
{
 2001f8c:	defffd04 	addi	sp,sp,-12
 2001f90:	dfc00215 	stw	ra,8(sp)
 2001f94:	df000115 	stw	fp,4(sp)
 2001f98:	df000104 	addi	fp,sp,4
 2001f9c:	2005883a 	mov	r2,r4
 2001fa0:	e0bfff0d 	sth	r2,-4(fp)
    while(count_ms--)
 2001fa4:	00000206 	br	2001fb0 <Delay_Ms+0x24>
    {
        usleep(1000);
 2001fa8:	0100fa04 	movi	r4,1000
 2001fac:	2018e0c0 	call	2018e0c <usleep>
*/


void Delay_Ms(alt_u16 count_ms)
{
    while(count_ms--)
 2001fb0:	e0bfff0b 	ldhu	r2,-4(fp)
 2001fb4:	10ffffc4 	addi	r3,r2,-1
 2001fb8:	e0ffff0d 	sth	r3,-4(fp)
 2001fbc:	10bfffcc 	andi	r2,r2,65535
 2001fc0:	103ff91e 	bne	r2,zero,2001fa8 <Delay_Ms+0x1c>
    {
        usleep(1000);
    }
}
 2001fc4:	e037883a 	mov	sp,fp
 2001fc8:	dfc00117 	ldw	ra,4(sp)
 2001fcc:	df000017 	ldw	fp,0(sp)
 2001fd0:	dec00204 	addi	sp,sp,8
 2001fd4:	f800283a 	ret

02001fd8 <LCD_SetCursor>:

//-------------------------------------------------------------

void LCD_SetCursor(alt_u16 Xpos, alt_u16 Ypos)
{
 2001fd8:	defffd04 	addi	sp,sp,-12
 2001fdc:	df000215 	stw	fp,8(sp)
 2001fe0:	df000204 	addi	fp,sp,8
 2001fe4:	2007883a 	mov	r3,r4
 2001fe8:	2805883a 	mov	r2,r5
 2001fec:	e0fffe0d 	sth	r3,-8(fp)
 2001ff0:	e0bfff0d 	sth	r2,-4(fp)
	 LCD_WR_REG(0x002A);
 2001ff4:	00c00a84 	movi	r3,42
 2001ff8:	00810034 	movhi	r2,1024
 2001ffc:	1099cc04 	addi	r2,r2,26416
 2002000:	10c00035 	stwio	r3,0(r2)
		 LCD_WR_DATA(Xpos>>8);
 2002004:	e0bffe0b 	ldhu	r2,-8(fp)
 2002008:	1004d23a 	srli	r2,r2,8
 200200c:	10ffffcc 	andi	r3,r2,65535
 2002010:	00810034 	movhi	r2,1024
 2002014:	1099cd04 	addi	r2,r2,26420
 2002018:	10c00035 	stwio	r3,0(r2)
		 LCD_WR_DATA(Xpos&0XFF);
 200201c:	e0bffe0b 	ldhu	r2,-8(fp)
 2002020:	10c03fcc 	andi	r3,r2,255
 2002024:	00810034 	movhi	r2,1024
 2002028:	1099cd04 	addi	r2,r2,26420
 200202c:	10c00035 	stwio	r3,0(r2)
	 LCD_WR_REG(0x002B);
 2002030:	00c00ac4 	movi	r3,43
 2002034:	00810034 	movhi	r2,1024
 2002038:	1099cc04 	addi	r2,r2,26416
 200203c:	10c00035 	stwio	r3,0(r2)
		 LCD_WR_DATA(Ypos>>8);
 2002040:	e0bfff0b 	ldhu	r2,-4(fp)
 2002044:	1004d23a 	srli	r2,r2,8
 2002048:	10ffffcc 	andi	r3,r2,65535
 200204c:	00810034 	movhi	r2,1024
 2002050:	1099cd04 	addi	r2,r2,26420
 2002054:	10c00035 	stwio	r3,0(r2)
		 LCD_WR_DATA(Ypos&0XFF);
 2002058:	e0bfff0b 	ldhu	r2,-4(fp)
 200205c:	10c03fcc 	andi	r3,r2,255
 2002060:	00810034 	movhi	r2,1024
 2002064:	1099cd04 	addi	r2,r2,26420
 2002068:	10c00035 	stwio	r3,0(r2)
	 LCD_WR_REG(0x002C);
 200206c:	00c00b04 	movi	r3,44
 2002070:	00810034 	movhi	r2,1024
 2002074:	1099cc04 	addi	r2,r2,26416
 2002078:	10c00035 	stwio	r3,0(r2)
}
 200207c:	e037883a 	mov	sp,fp
 2002080:	df000017 	ldw	fp,0(sp)
 2002084:	dec00104 	addi	sp,sp,4
 2002088:	f800283a 	ret

0200208c <LCD_Clear>:

//-------------------------------------------------------------

void LCD_Clear(alt_u16 Color)
{
 200208c:	defffc04 	addi	sp,sp,-16
 2002090:	dfc00315 	stw	ra,12(sp)
 2002094:	df000215 	stw	fp,8(sp)
 2002098:	df000204 	addi	fp,sp,8
 200209c:	2005883a 	mov	r2,r4
 20020a0:	e0bfff0d 	sth	r2,-4(fp)
        alt_u32 index=0;
 20020a4:	e03ffe15 	stw	zero,-8(fp)
        LCD_SetCursor(0x00,0x0000);
 20020a8:	0009883a 	mov	r4,zero
 20020ac:	000b883a 	mov	r5,zero
 20020b0:	2001fd80 	call	2001fd8 <LCD_SetCursor>
        LCD_WR_REG(0x002C);
 20020b4:	00c00b04 	movi	r3,44
 20020b8:	00810034 	movhi	r2,1024
 20020bc:	1099cc04 	addi	r2,r2,26416
 20020c0:	10c00035 	stwio	r3,0(r2)
        for(index=0;index<76800;index++)
 20020c4:	e03ffe15 	stw	zero,-8(fp)
 20020c8:	00000706 	br	20020e8 <LCD_Clear+0x5c>
        {
        	LCD_WR_DATA(Color);
 20020cc:	e0ffff0b 	ldhu	r3,-4(fp)
 20020d0:	00810034 	movhi	r2,1024
 20020d4:	1099cd04 	addi	r2,r2,26420
 20020d8:	10c00035 	stwio	r3,0(r2)
void LCD_Clear(alt_u16 Color)
{
        alt_u32 index=0;
        LCD_SetCursor(0x00,0x0000);
        LCD_WR_REG(0x002C);
        for(index=0;index<76800;index++)
 20020dc:	e0bffe17 	ldw	r2,-8(fp)
 20020e0:	10800044 	addi	r2,r2,1
 20020e4:	e0bffe15 	stw	r2,-8(fp)
 20020e8:	e0fffe17 	ldw	r3,-8(fp)
 20020ec:	00800074 	movhi	r2,1
 20020f0:	108affc4 	addi	r2,r2,11263
 20020f4:	10fff52e 	bgeu	r2,r3,20020cc <LCD_Clear+0x40>
        {
        	LCD_WR_DATA(Color);
        }
}
 20020f8:	e037883a 	mov	sp,fp
 20020fc:	dfc00117 	ldw	ra,4(sp)
 2002100:	df000017 	ldw	fp,0(sp)
 2002104:	dec00204 	addi	sp,sp,8
 2002108:	f800283a 	ret

0200210c <LCD_DrawPoint>:

//-------------------------------------------------------------

void LCD_DrawPoint(alt_u16 x,alt_u16 y,alt_u16 color )
{
 200210c:	defffb04 	addi	sp,sp,-20
 2002110:	dfc00415 	stw	ra,16(sp)
 2002114:	df000315 	stw	fp,12(sp)
 2002118:	df000304 	addi	fp,sp,12
 200211c:	2807883a 	mov	r3,r5
 2002120:	3005883a 	mov	r2,r6
 2002124:	e13ffd0d 	sth	r4,-12(fp)
 2002128:	e0fffe0d 	sth	r3,-8(fp)
 200212c:	e0bfff0d 	sth	r2,-4(fp)
        LCD_SetCursor(x,y);
 2002130:	e0fffd0b 	ldhu	r3,-12(fp)
 2002134:	e0bffe0b 	ldhu	r2,-8(fp)
 2002138:	1809883a 	mov	r4,r3
 200213c:	100b883a 	mov	r5,r2
 2002140:	2001fd80 	call	2001fd8 <LCD_SetCursor>
        LCD_WR_REG(0x002C);
 2002144:	00c00b04 	movi	r3,44
 2002148:	00810034 	movhi	r2,1024
 200214c:	1099cc04 	addi	r2,r2,26416
 2002150:	10c00035 	stwio	r3,0(r2)
        LCD_WR_DATA(color);
 2002154:	e0ffff0b 	ldhu	r3,-4(fp)
 2002158:	00810034 	movhi	r2,1024
 200215c:	1099cd04 	addi	r2,r2,26420
 2002160:	10c00035 	stwio	r3,0(r2)
}
 2002164:	e037883a 	mov	sp,fp
 2002168:	dfc00117 	ldw	ra,4(sp)
 200216c:	df000017 	ldw	fp,0(sp)
 2002170:	dec00204 	addi	sp,sp,8
 2002174:	f800283a 	ret

02002178 <LCD_Init>:

//-------------------------------------------------------------

void LCD_Init()
{
 2002178:	defffe04 	addi	sp,sp,-8
 200217c:	dfc00115 	stw	ra,4(sp)
 2002180:	df000015 	stw	fp,0(sp)
 2002184:	d839883a 	mov	fp,sp
	Set_LCD_RST;
 2002188:	00c00044 	movi	r3,1
 200218c:	00810034 	movhi	r2,1024
 2002190:	1099c004 	addi	r2,r2,26368
 2002194:	10c00035 	stwio	r3,0(r2)
	Delay_Ms(1);
 2002198:	01000044 	movi	r4,1
 200219c:	2001f8c0 	call	2001f8c <Delay_Ms>
	Clr_LCD_RST;
 20021a0:	0007883a 	mov	r3,zero
 20021a4:	00810034 	movhi	r2,1024
 20021a8:	1099c004 	addi	r2,r2,26368
 20021ac:	10c00035 	stwio	r3,0(r2)
	Delay_Ms(10);       // Delay 10ms // This delay time is necessary
 20021b0:	01000284 	movi	r4,10
 20021b4:	2001f8c0 	call	2001f8c <Delay_Ms>
	Set_LCD_RST;
 20021b8:	00c00044 	movi	r3,1
 20021bc:	00810034 	movhi	r2,1024
 20021c0:	1099c004 	addi	r2,r2,26368
 20021c4:	10c00035 	stwio	r3,0(r2)
	Delay_Ms(120);       // Delay 120 ms
 20021c8:	01001e04 	movi	r4,120
 20021cc:	2001f8c0 	call	2001f8c <Delay_Ms>
//	Clr_LCD_CS;

	LCD_WR_REG(0x0011); //Exit Sleep
 20021d0:	00c00444 	movi	r3,17
 20021d4:	00810034 	movhi	r2,1024
 20021d8:	1099cc04 	addi	r2,r2,26416
 20021dc:	10c00035 	stwio	r3,0(r2)
	LCD_WR_REG(0x00CF);
 20021e0:	00c033c4 	movi	r3,207
 20021e4:	00810034 	movhi	r2,1024
 20021e8:	1099cc04 	addi	r2,r2,26416
 20021ec:	10c00035 	stwio	r3,0(r2)
		LCD_WR_DATA(0x0000);
 20021f0:	0007883a 	mov	r3,zero
 20021f4:	00810034 	movhi	r2,1024
 20021f8:	1099cd04 	addi	r2,r2,26420
 20021fc:	10c00035 	stwio	r3,0(r2)
		LCD_WR_DATA(0x0081);
 2002200:	00c02044 	movi	r3,129
 2002204:	00810034 	movhi	r2,1024
 2002208:	1099cd04 	addi	r2,r2,26420
 200220c:	10c00035 	stwio	r3,0(r2)
		LCD_WR_DATA(0X00c0);
 2002210:	00c03004 	movi	r3,192
 2002214:	00810034 	movhi	r2,1024
 2002218:	1099cd04 	addi	r2,r2,26420
 200221c:	10c00035 	stwio	r3,0(r2)

	LCD_WR_REG(0x00ED);
 2002220:	00c03b44 	movi	r3,237
 2002224:	00810034 	movhi	r2,1024
 2002228:	1099cc04 	addi	r2,r2,26416
 200222c:	10c00035 	stwio	r3,0(r2)
		LCD_WR_DATA(0x0064);
 2002230:	00c01904 	movi	r3,100
 2002234:	00810034 	movhi	r2,1024
 2002238:	1099cd04 	addi	r2,r2,26420
 200223c:	10c00035 	stwio	r3,0(r2)
		LCD_WR_DATA(0x0003);
 2002240:	00c000c4 	movi	r3,3
 2002244:	00810034 	movhi	r2,1024
 2002248:	1099cd04 	addi	r2,r2,26420
 200224c:	10c00035 	stwio	r3,0(r2)
		LCD_WR_DATA(0X0012);
 2002250:	00c00484 	movi	r3,18
 2002254:	00810034 	movhi	r2,1024
 2002258:	1099cd04 	addi	r2,r2,26420
 200225c:	10c00035 	stwio	r3,0(r2)
		LCD_WR_DATA(0X0081);
 2002260:	00c02044 	movi	r3,129
 2002264:	00810034 	movhi	r2,1024
 2002268:	1099cd04 	addi	r2,r2,26420
 200226c:	10c00035 	stwio	r3,0(r2)

	LCD_WR_REG(0x00E8);
 2002270:	00c03a04 	movi	r3,232
 2002274:	00810034 	movhi	r2,1024
 2002278:	1099cc04 	addi	r2,r2,26416
 200227c:	10c00035 	stwio	r3,0(r2)
		LCD_WR_DATA(0x0085);
 2002280:	00c02144 	movi	r3,133
 2002284:	00810034 	movhi	r2,1024
 2002288:	1099cd04 	addi	r2,r2,26420
 200228c:	10c00035 	stwio	r3,0(r2)
		LCD_WR_DATA(0x0001);
 2002290:	00c00044 	movi	r3,1
 2002294:	00810034 	movhi	r2,1024
 2002298:	1099cd04 	addi	r2,r2,26420
 200229c:	10c00035 	stwio	r3,0(r2)
		LCD_WR_DATA(0x00798);
 20022a0:	00c1e604 	movi	r3,1944
 20022a4:	00810034 	movhi	r2,1024
 20022a8:	1099cd04 	addi	r2,r2,26420
 20022ac:	10c00035 	stwio	r3,0(r2)

	LCD_WR_REG(0x00CB);
 20022b0:	00c032c4 	movi	r3,203
 20022b4:	00810034 	movhi	r2,1024
 20022b8:	1099cc04 	addi	r2,r2,26416
 20022bc:	10c00035 	stwio	r3,0(r2)
		LCD_WR_DATA(0x0039);
 20022c0:	00c00e44 	movi	r3,57
 20022c4:	00810034 	movhi	r2,1024
 20022c8:	1099cd04 	addi	r2,r2,26420
 20022cc:	10c00035 	stwio	r3,0(r2)
		LCD_WR_DATA(0x002C);
 20022d0:	00c00b04 	movi	r3,44
 20022d4:	00810034 	movhi	r2,1024
 20022d8:	1099cd04 	addi	r2,r2,26420
 20022dc:	10c00035 	stwio	r3,0(r2)
		LCD_WR_DATA(0x0000);
 20022e0:	0007883a 	mov	r3,zero
 20022e4:	00810034 	movhi	r2,1024
 20022e8:	1099cd04 	addi	r2,r2,26420
 20022ec:	10c00035 	stwio	r3,0(r2)
		LCD_WR_DATA(0x0034);
 20022f0:	00c00d04 	movi	r3,52
 20022f4:	00810034 	movhi	r2,1024
 20022f8:	1099cd04 	addi	r2,r2,26420
 20022fc:	10c00035 	stwio	r3,0(r2)
		LCD_WR_DATA(0x0002);
 2002300:	00c00084 	movi	r3,2
 2002304:	00810034 	movhi	r2,1024
 2002308:	1099cd04 	addi	r2,r2,26420
 200230c:	10c00035 	stwio	r3,0(r2)

	LCD_WR_REG(0x00F7);
 2002310:	00c03dc4 	movi	r3,247
 2002314:	00810034 	movhi	r2,1024
 2002318:	1099cc04 	addi	r2,r2,26416
 200231c:	10c00035 	stwio	r3,0(r2)
		LCD_WR_DATA(0x0020);
 2002320:	00c00804 	movi	r3,32
 2002324:	00810034 	movhi	r2,1024
 2002328:	1099cd04 	addi	r2,r2,26420
 200232c:	10c00035 	stwio	r3,0(r2)

	LCD_WR_REG(0x00EA);
 2002330:	00c03a84 	movi	r3,234
 2002334:	00810034 	movhi	r2,1024
 2002338:	1099cc04 	addi	r2,r2,26416
 200233c:	10c00035 	stwio	r3,0(r2)
		LCD_WR_DATA(0x0000);
 2002340:	0007883a 	mov	r3,zero
 2002344:	00810034 	movhi	r2,1024
 2002348:	1099cd04 	addi	r2,r2,26420
 200234c:	10c00035 	stwio	r3,0(r2)
		LCD_WR_DATA(0x0000);
 2002350:	0007883a 	mov	r3,zero
 2002354:	00810034 	movhi	r2,1024
 2002358:	1099cd04 	addi	r2,r2,26420
 200235c:	10c00035 	stwio	r3,0(r2)

	LCD_WR_REG(0x00B1);
 2002360:	00c02c44 	movi	r3,177
 2002364:	00810034 	movhi	r2,1024
 2002368:	1099cc04 	addi	r2,r2,26416
 200236c:	10c00035 	stwio	r3,0(r2)
		LCD_WR_DATA(0x0000);
 2002370:	0007883a 	mov	r3,zero
 2002374:	00810034 	movhi	r2,1024
 2002378:	1099cd04 	addi	r2,r2,26420
 200237c:	10c00035 	stwio	r3,0(r2)
		LCD_WR_DATA(0x001b);
 2002380:	00c006c4 	movi	r3,27
 2002384:	00810034 	movhi	r2,1024
 2002388:	1099cd04 	addi	r2,r2,26420
 200238c:	10c00035 	stwio	r3,0(r2)

	LCD_WR_REG(0x00B6);
 2002390:	00c02d84 	movi	r3,182
 2002394:	00810034 	movhi	r2,1024
 2002398:	1099cc04 	addi	r2,r2,26416
 200239c:	10c00035 	stwio	r3,0(r2)
		LCD_WR_DATA(0x000A);
 20023a0:	00c00284 	movi	r3,10
 20023a4:	00810034 	movhi	r2,1024
 20023a8:	1099cd04 	addi	r2,r2,26420
 20023ac:	10c00035 	stwio	r3,0(r2)
		LCD_WR_DATA(0x00A2);
 20023b0:	00c02884 	movi	r3,162
 20023b4:	00810034 	movhi	r2,1024
 20023b8:	1099cd04 	addi	r2,r2,26420
 20023bc:	10c00035 	stwio	r3,0(r2)

	LCD_WR_REG(0x00C0);    //Power control
 20023c0:	00c03004 	movi	r3,192
 20023c4:	00810034 	movhi	r2,1024
 20023c8:	1099cc04 	addi	r2,r2,26416
 20023cc:	10c00035 	stwio	r3,0(r2)
		LCD_WR_DATA(0x0005);   //VRH[5:0]
 20023d0:	00c00144 	movi	r3,5
 20023d4:	00810034 	movhi	r2,1024
 20023d8:	1099cd04 	addi	r2,r2,26420
 20023dc:	10c00035 	stwio	r3,0(r2)

	LCD_WR_REG(0x00C1);    //Power control
 20023e0:	00c03044 	movi	r3,193
 20023e4:	00810034 	movhi	r2,1024
 20023e8:	1099cc04 	addi	r2,r2,26416
 20023ec:	10c00035 	stwio	r3,0(r2)
		LCD_WR_DATA(0x0011);   //SAP[2:0];BT[3:0]
 20023f0:	00c00444 	movi	r3,17
 20023f4:	00810034 	movhi	r2,1024
 20023f8:	1099cd04 	addi	r2,r2,26420
 20023fc:	10c00035 	stwio	r3,0(r2)

	LCD_WR_REG(0x00C5);    //VCM control
 2002400:	00c03144 	movi	r3,197
 2002404:	00810034 	movhi	r2,1024
 2002408:	1099cc04 	addi	r2,r2,26416
 200240c:	10c00035 	stwio	r3,0(r2)
		LCD_WR_DATA(0x0045);       //3F
 2002410:	00c01144 	movi	r3,69
 2002414:	00810034 	movhi	r2,1024
 2002418:	1099cd04 	addi	r2,r2,26420
 200241c:	10c00035 	stwio	r3,0(r2)
		LCD_WR_DATA(0x0045);       //3C
 2002420:	00c01144 	movi	r3,69
 2002424:	00810034 	movhi	r2,1024
 2002428:	1099cd04 	addi	r2,r2,26420
 200242c:	10c00035 	stwio	r3,0(r2)

	 LCD_WR_REG(0x00C7);    //VCM control2
 2002430:	00c031c4 	movi	r3,199
 2002434:	00810034 	movhi	r2,1024
 2002438:	1099cc04 	addi	r2,r2,26416
 200243c:	10c00035 	stwio	r3,0(r2)
		 LCD_WR_DATA(0X00a2);
 2002440:	00c02884 	movi	r3,162
 2002444:	00810034 	movhi	r2,1024
 2002448:	1099cd04 	addi	r2,r2,26420
 200244c:	10c00035 	stwio	r3,0(r2)

	LCD_WR_REG(0x0036);    // Memory Access Control
 2002450:	00c00d84 	movi	r3,54
 2002454:	00810034 	movhi	r2,1024
 2002458:	1099cc04 	addi	r2,r2,26416
 200245c:	10c00035 	stwio	r3,0(r2)
		LCD_WR_DATA(0x0008);//48
 2002460:	00c00204 	movi	r3,8
 2002464:	00810034 	movhi	r2,1024
 2002468:	1099cd04 	addi	r2,r2,26420
 200246c:	10c00035 	stwio	r3,0(r2)

	LCD_WR_REG(0x00F2);    // 3Gamma Function Disable
 2002470:	00c03c84 	movi	r3,242
 2002474:	00810034 	movhi	r2,1024
 2002478:	1099cc04 	addi	r2,r2,26416
 200247c:	10c00035 	stwio	r3,0(r2)
		LCD_WR_DATA(0x0000);
 2002480:	0007883a 	mov	r3,zero
 2002484:	00810034 	movhi	r2,1024
 2002488:	1099cd04 	addi	r2,r2,26420
 200248c:	10c00035 	stwio	r3,0(r2)

	LCD_WR_REG(0x0026);    //Gamma curve selected
 2002490:	00c00984 	movi	r3,38
 2002494:	00810034 	movhi	r2,1024
 2002498:	1099cc04 	addi	r2,r2,26416
 200249c:	10c00035 	stwio	r3,0(r2)
		LCD_WR_DATA(0x0001);
 20024a0:	00c00044 	movi	r3,1
 20024a4:	00810034 	movhi	r2,1024
 20024a8:	1099cd04 	addi	r2,r2,26420
 20024ac:	10c00035 	stwio	r3,0(r2)

	LCD_WR_REG(0x00E0);    //Set Gamma
 20024b0:	00c03804 	movi	r3,224
 20024b4:	00810034 	movhi	r2,1024
 20024b8:	1099cc04 	addi	r2,r2,26416
 20024bc:	10c00035 	stwio	r3,0(r2)
		LCD_WR_DATA(0x000F);
 20024c0:	00c003c4 	movi	r3,15
 20024c4:	00810034 	movhi	r2,1024
 20024c8:	1099cd04 	addi	r2,r2,26420
 20024cc:	10c00035 	stwio	r3,0(r2)
		LCD_WR_DATA(0x0026);
 20024d0:	00c00984 	movi	r3,38
 20024d4:	00810034 	movhi	r2,1024
 20024d8:	1099cd04 	addi	r2,r2,26420
 20024dc:	10c00035 	stwio	r3,0(r2)
		LCD_WR_DATA(0x0024);
 20024e0:	00c00904 	movi	r3,36
 20024e4:	00810034 	movhi	r2,1024
 20024e8:	1099cd04 	addi	r2,r2,26420
 20024ec:	10c00035 	stwio	r3,0(r2)
		LCD_WR_DATA(0x000b);
 20024f0:	00c002c4 	movi	r3,11
 20024f4:	00810034 	movhi	r2,1024
 20024f8:	1099cd04 	addi	r2,r2,26420
 20024fc:	10c00035 	stwio	r3,0(r2)
		LCD_WR_DATA(0x000E);
 2002500:	00c00384 	movi	r3,14
 2002504:	00810034 	movhi	r2,1024
 2002508:	1099cd04 	addi	r2,r2,26420
 200250c:	10c00035 	stwio	r3,0(r2)
		LCD_WR_DATA(0x0008);
 2002510:	00c00204 	movi	r3,8
 2002514:	00810034 	movhi	r2,1024
 2002518:	1099cd04 	addi	r2,r2,26420
 200251c:	10c00035 	stwio	r3,0(r2)
		LCD_WR_DATA(0x004b);
 2002520:	00c012c4 	movi	r3,75
 2002524:	00810034 	movhi	r2,1024
 2002528:	1099cd04 	addi	r2,r2,26420
 200252c:	10c00035 	stwio	r3,0(r2)
		LCD_WR_DATA(0X00a8);
 2002530:	00c02a04 	movi	r3,168
 2002534:	00810034 	movhi	r2,1024
 2002538:	1099cd04 	addi	r2,r2,26420
 200253c:	10c00035 	stwio	r3,0(r2)
		LCD_WR_DATA(0x003b);
 2002540:	00c00ec4 	movi	r3,59
 2002544:	00810034 	movhi	r2,1024
 2002548:	1099cd04 	addi	r2,r2,26420
 200254c:	10c00035 	stwio	r3,0(r2)
		LCD_WR_DATA(0x000a);
 2002550:	00c00284 	movi	r3,10
 2002554:	00810034 	movhi	r2,1024
 2002558:	1099cd04 	addi	r2,r2,26420
 200255c:	10c00035 	stwio	r3,0(r2)
		LCD_WR_DATA(0x0014);
 2002560:	00c00504 	movi	r3,20
 2002564:	00810034 	movhi	r2,1024
 2002568:	1099cd04 	addi	r2,r2,26420
 200256c:	10c00035 	stwio	r3,0(r2)
		LCD_WR_DATA(0x0006);
 2002570:	00c00184 	movi	r3,6
 2002574:	00810034 	movhi	r2,1024
 2002578:	1099cd04 	addi	r2,r2,26420
 200257c:	10c00035 	stwio	r3,0(r2)
		LCD_WR_DATA(0x0010);
 2002580:	00c00404 	movi	r3,16
 2002584:	00810034 	movhi	r2,1024
 2002588:	1099cd04 	addi	r2,r2,26420
 200258c:	10c00035 	stwio	r3,0(r2)
		LCD_WR_DATA(0x0009);
 2002590:	00c00244 	movi	r3,9
 2002594:	00810034 	movhi	r2,1024
 2002598:	1099cd04 	addi	r2,r2,26420
 200259c:	10c00035 	stwio	r3,0(r2)
		LCD_WR_DATA(0x0000);
 20025a0:	0007883a 	mov	r3,zero
 20025a4:	00810034 	movhi	r2,1024
 20025a8:	1099cd04 	addi	r2,r2,26420
 20025ac:	10c00035 	stwio	r3,0(r2)

	LCD_WR_REG(0X00E1);    //Set Gamma
 20025b0:	00c03844 	movi	r3,225
 20025b4:	00810034 	movhi	r2,1024
 20025b8:	1099cc04 	addi	r2,r2,26416
 20025bc:	10c00035 	stwio	r3,0(r2)
		LCD_WR_DATA(0x0000);
 20025c0:	0007883a 	mov	r3,zero
 20025c4:	00810034 	movhi	r2,1024
 20025c8:	1099cd04 	addi	r2,r2,26420
 20025cc:	10c00035 	stwio	r3,0(r2)
		LCD_WR_DATA(0x001c);
 20025d0:	00c00704 	movi	r3,28
 20025d4:	00810034 	movhi	r2,1024
 20025d8:	1099cd04 	addi	r2,r2,26420
 20025dc:	10c00035 	stwio	r3,0(r2)
		LCD_WR_DATA(0x0020);
 20025e0:	00c00804 	movi	r3,32
 20025e4:	00810034 	movhi	r2,1024
 20025e8:	1099cd04 	addi	r2,r2,26420
 20025ec:	10c00035 	stwio	r3,0(r2)
		LCD_WR_DATA(0x0004);
 20025f0:	00c00104 	movi	r3,4
 20025f4:	00810034 	movhi	r2,1024
 20025f8:	1099cd04 	addi	r2,r2,26420
 20025fc:	10c00035 	stwio	r3,0(r2)
		LCD_WR_DATA(0x0010);
 2002600:	00c00404 	movi	r3,16
 2002604:	00810034 	movhi	r2,1024
 2002608:	1099cd04 	addi	r2,r2,26420
 200260c:	10c00035 	stwio	r3,0(r2)
		LCD_WR_DATA(0x0008);
 2002610:	00c00204 	movi	r3,8
 2002614:	00810034 	movhi	r2,1024
 2002618:	1099cd04 	addi	r2,r2,26420
 200261c:	10c00035 	stwio	r3,0(r2)
		LCD_WR_DATA(0x0034);
 2002620:	00c00d04 	movi	r3,52
 2002624:	00810034 	movhi	r2,1024
 2002628:	1099cd04 	addi	r2,r2,26420
 200262c:	10c00035 	stwio	r3,0(r2)
		LCD_WR_DATA(0x0047);
 2002630:	00c011c4 	movi	r3,71
 2002634:	00810034 	movhi	r2,1024
 2002638:	1099cd04 	addi	r2,r2,26420
 200263c:	10c00035 	stwio	r3,0(r2)
		LCD_WR_DATA(0x0044);
 2002640:	00c01104 	movi	r3,68
 2002644:	00810034 	movhi	r2,1024
 2002648:	1099cd04 	addi	r2,r2,26420
 200264c:	10c00035 	stwio	r3,0(r2)
		LCD_WR_DATA(0x0005);
 2002650:	00c00144 	movi	r3,5
 2002654:	00810034 	movhi	r2,1024
 2002658:	1099cd04 	addi	r2,r2,26420
 200265c:	10c00035 	stwio	r3,0(r2)
		LCD_WR_DATA(0x000b);
 2002660:	00c002c4 	movi	r3,11
 2002664:	00810034 	movhi	r2,1024
 2002668:	1099cd04 	addi	r2,r2,26420
 200266c:	10c00035 	stwio	r3,0(r2)
		LCD_WR_DATA(0x0009);
 2002670:	00c00244 	movi	r3,9
 2002674:	00810034 	movhi	r2,1024
 2002678:	1099cd04 	addi	r2,r2,26420
 200267c:	10c00035 	stwio	r3,0(r2)
		LCD_WR_DATA(0x002f);
 2002680:	00c00bc4 	movi	r3,47
 2002684:	00810034 	movhi	r2,1024
 2002688:	1099cd04 	addi	r2,r2,26420
 200268c:	10c00035 	stwio	r3,0(r2)
		LCD_WR_DATA(0x0036);
 2002690:	00c00d84 	movi	r3,54
 2002694:	00810034 	movhi	r2,1024
 2002698:	1099cd04 	addi	r2,r2,26420
 200269c:	10c00035 	stwio	r3,0(r2)
		LCD_WR_DATA(0x000f);
 20026a0:	00c003c4 	movi	r3,15
 20026a4:	00810034 	movhi	r2,1024
 20026a8:	1099cd04 	addi	r2,r2,26420
 20026ac:	10c00035 	stwio	r3,0(r2)

	LCD_WR_REG(0x002A);
 20026b0:	00c00a84 	movi	r3,42
 20026b4:	00810034 	movhi	r2,1024
 20026b8:	1099cc04 	addi	r2,r2,26416
 20026bc:	10c00035 	stwio	r3,0(r2)
		LCD_WR_DATA(0x0000);
 20026c0:	0007883a 	mov	r3,zero
 20026c4:	00810034 	movhi	r2,1024
 20026c8:	1099cd04 	addi	r2,r2,26420
 20026cc:	10c00035 	stwio	r3,0(r2)
		LCD_WR_DATA(0x0000);
 20026d0:	0007883a 	mov	r3,zero
 20026d4:	00810034 	movhi	r2,1024
 20026d8:	1099cd04 	addi	r2,r2,26420
 20026dc:	10c00035 	stwio	r3,0(r2)
		LCD_WR_DATA(0x0000);
 20026e0:	0007883a 	mov	r3,zero
 20026e4:	00810034 	movhi	r2,1024
 20026e8:	1099cd04 	addi	r2,r2,26420
 20026ec:	10c00035 	stwio	r3,0(r2)
		LCD_WR_DATA(0x00ef);
 20026f0:	00c03bc4 	movi	r3,239
 20026f4:	00810034 	movhi	r2,1024
 20026f8:	1099cd04 	addi	r2,r2,26420
 20026fc:	10c00035 	stwio	r3,0(r2)

	 LCD_WR_REG(0x002B);
 2002700:	00c00ac4 	movi	r3,43
 2002704:	00810034 	movhi	r2,1024
 2002708:	1099cc04 	addi	r2,r2,26416
 200270c:	10c00035 	stwio	r3,0(r2)
		LCD_WR_DATA(0x0000);
 2002710:	0007883a 	mov	r3,zero
 2002714:	00810034 	movhi	r2,1024
 2002718:	1099cd04 	addi	r2,r2,26420
 200271c:	10c00035 	stwio	r3,0(r2)
		LCD_WR_DATA(0x0000);
 2002720:	0007883a 	mov	r3,zero
 2002724:	00810034 	movhi	r2,1024
 2002728:	1099cd04 	addi	r2,r2,26420
 200272c:	10c00035 	stwio	r3,0(r2)
		LCD_WR_DATA(0x0001);
 2002730:	00c00044 	movi	r3,1
 2002734:	00810034 	movhi	r2,1024
 2002738:	1099cd04 	addi	r2,r2,26420
 200273c:	10c00035 	stwio	r3,0(r2)
		LCD_WR_DATA(0x003f);
 2002740:	00c00fc4 	movi	r3,63
 2002744:	00810034 	movhi	r2,1024
 2002748:	1099cd04 	addi	r2,r2,26420
 200274c:	10c00035 	stwio	r3,0(r2)

	LCD_WR_REG(0x003A);
 2002750:	00c00e84 	movi	r3,58
 2002754:	00810034 	movhi	r2,1024
 2002758:	1099cc04 	addi	r2,r2,26416
 200275c:	10c00035 	stwio	r3,0(r2)
		LCD_WR_DATA(0x0055);
 2002760:	00c01544 	movi	r3,85
 2002764:	00810034 	movhi	r2,1024
 2002768:	1099cd04 	addi	r2,r2,26420
 200276c:	10c00035 	stwio	r3,0(r2)

	LCD_WR_REG(0x00f6);
 2002770:	00c03d84 	movi	r3,246
 2002774:	00810034 	movhi	r2,1024
 2002778:	1099cc04 	addi	r2,r2,26416
 200277c:	10c00035 	stwio	r3,0(r2)
		LCD_WR_DATA(0x0001);
 2002780:	00c00044 	movi	r3,1
 2002784:	00810034 	movhi	r2,1024
 2002788:	1099cd04 	addi	r2,r2,26420
 200278c:	10c00035 	stwio	r3,0(r2)
		LCD_WR_DATA(0x0030);
 2002790:	00c00c04 	movi	r3,48
 2002794:	00810034 	movhi	r2,1024
 2002798:	1099cd04 	addi	r2,r2,26420
 200279c:	10c00035 	stwio	r3,0(r2)
		LCD_WR_DATA(0x0000);
 20027a0:	0007883a 	mov	r3,zero
 20027a4:	00810034 	movhi	r2,1024
 20027a8:	1099cd04 	addi	r2,r2,26420
 20027ac:	10c00035 	stwio	r3,0(r2)

	LCD_WR_REG(0x0029); //display on
 20027b0:	00c00a44 	movi	r3,41
 20027b4:	00810034 	movhi	r2,1024
 20027b8:	1099cc04 	addi	r2,r2,26416
 20027bc:	10c00035 	stwio	r3,0(r2)


	LCD_WR_REG(0x002c);    // 0x2C
 20027c0:	00c00b04 	movi	r3,44
 20027c4:	00810034 	movhi	r2,1024
 20027c8:	1099cc04 	addi	r2,r2,26416
 20027cc:	10c00035 	stwio	r3,0(r2)
}
 20027d0:	e037883a 	mov	sp,fp
 20027d4:	dfc00117 	ldw	ra,4(sp)
 20027d8:	df000017 	ldw	fp,0(sp)
 20027dc:	dec00204 	addi	sp,sp,8
 20027e0:	f800283a 	ret

020027e4 <LCD_Pattern_Horizon>:


//-------------------------------------------------------------

void LCD_Pattern_Horizon(void)
{
 20027e4:	defffc04 	addi	sp,sp,-16
 20027e8:	dfc00315 	stw	ra,12(sp)
 20027ec:	df000215 	stw	fp,8(sp)
 20027f0:	df000204 	addi	fp,sp,8
        alt_u32 index=0;
 20027f4:	e03ffe15 	stw	zero,-8(fp)
        alt_u16  data=0;
 20027f8:	e03fff0d 	sth	zero,-4(fp)
        LCD_SetCursor(0x00,0x0000);
 20027fc:	0009883a 	mov	r4,zero
 2002800:	000b883a 	mov	r5,zero
 2002804:	2001fd80 	call	2001fd8 <LCD_SetCursor>
        data=0x0000;
 2002808:	e03fff0d 	sth	zero,-4(fp)
        for(index=0;index<240*80;index++)
 200280c:	e03ffe15 	stw	zero,-8(fp)
 2002810:	00000706 	br	2002830 <LCD_Pattern_Horizon+0x4c>
        {
        	LCD_WR_DATA(data);
 2002814:	e0ffff0b 	ldhu	r3,-4(fp)
 2002818:	00810034 	movhi	r2,1024
 200281c:	1099cd04 	addi	r2,r2,26420
 2002820:	10c00035 	stwio	r3,0(r2)
{
        alt_u32 index=0;
        alt_u16  data=0;
        LCD_SetCursor(0x00,0x0000);
        data=0x0000;
        for(index=0;index<240*80;index++)
 2002824:	e0bffe17 	ldw	r2,-8(fp)
 2002828:	10800044 	addi	r2,r2,1
 200282c:	e0bffe15 	stw	r2,-8(fp)
 2002830:	e0bffe17 	ldw	r2,-8(fp)
 2002834:	1092c030 	cmpltui	r2,r2,19200
 2002838:	103ff61e 	bne	r2,zero,2002814 <LCD_Pattern_Horizon+0x30>
        {
        	LCD_WR_DATA(data);
        }
        LCD_SetCursor(0x00,80);
 200283c:	0009883a 	mov	r4,zero
 2002840:	01401404 	movi	r5,80
 2002844:	2001fd80 	call	2001fd8 <LCD_SetCursor>
        data=RED;
 2002848:	00be0004 	movi	r2,-2048
 200284c:	e0bfff0d 	sth	r2,-4(fp)
		for(index=0;index<240*80;index++)
 2002850:	e03ffe15 	stw	zero,-8(fp)
 2002854:	00000706 	br	2002874 <LCD_Pattern_Horizon+0x90>
		{
			LCD_WR_DATA(data);
 2002858:	e0ffff0b 	ldhu	r3,-4(fp)
 200285c:	00810034 	movhi	r2,1024
 2002860:	1099cd04 	addi	r2,r2,26420
 2002864:	10c00035 	stwio	r3,0(r2)
        {
        	LCD_WR_DATA(data);
        }
        LCD_SetCursor(0x00,80);
        data=RED;
		for(index=0;index<240*80;index++)
 2002868:	e0bffe17 	ldw	r2,-8(fp)
 200286c:	10800044 	addi	r2,r2,1
 2002870:	e0bffe15 	stw	r2,-8(fp)
 2002874:	e0bffe17 	ldw	r2,-8(fp)
 2002878:	1092c030 	cmpltui	r2,r2,19200
 200287c:	103ff61e 	bne	r2,zero,2002858 <LCD_Pattern_Horizon+0x74>
		{
			LCD_WR_DATA(data);
		}
	    LCD_SetCursor(0x00,160);
 2002880:	0009883a 	mov	r4,zero
 2002884:	01402804 	movi	r5,160
 2002888:	2001fd80 	call	2001fd8 <LCD_SetCursor>
		data=GREEN;
 200288c:	0081f804 	movi	r2,2016
 2002890:	e0bfff0d 	sth	r2,-4(fp)
		for(index=0;index<240*80;index++)
 2002894:	e03ffe15 	stw	zero,-8(fp)
 2002898:	00000706 	br	20028b8 <LCD_Pattern_Horizon+0xd4>
		{
			LCD_WR_DATA(data);
 200289c:	e0ffff0b 	ldhu	r3,-4(fp)
 20028a0:	00810034 	movhi	r2,1024
 20028a4:	1099cd04 	addi	r2,r2,26420
 20028a8:	10c00035 	stwio	r3,0(r2)
		{
			LCD_WR_DATA(data);
		}
	    LCD_SetCursor(0x00,160);
		data=GREEN;
		for(index=0;index<240*80;index++)
 20028ac:	e0bffe17 	ldw	r2,-8(fp)
 20028b0:	10800044 	addi	r2,r2,1
 20028b4:	e0bffe15 	stw	r2,-8(fp)
 20028b8:	e0bffe17 	ldw	r2,-8(fp)
 20028bc:	1092c030 	cmpltui	r2,r2,19200
 20028c0:	103ff61e 	bne	r2,zero,200289c <LCD_Pattern_Horizon+0xb8>
		{
			LCD_WR_DATA(data);
		}
		LCD_SetCursor(0x00,240);
 20028c4:	0009883a 	mov	r4,zero
 20028c8:	01403c04 	movi	r5,240
 20028cc:	2001fd80 	call	2001fd8 <LCD_SetCursor>
		data=BLUE;
 20028d0:	008007c4 	movi	r2,31
 20028d4:	e0bfff0d 	sth	r2,-4(fp)
		for(index=0;index<240*80;index++)
 20028d8:	e03ffe15 	stw	zero,-8(fp)
 20028dc:	00000706 	br	20028fc <LCD_Pattern_Horizon+0x118>
		{
			LCD_WR_DATA(data);
 20028e0:	e0ffff0b 	ldhu	r3,-4(fp)
 20028e4:	00810034 	movhi	r2,1024
 20028e8:	1099cd04 	addi	r2,r2,26420
 20028ec:	10c00035 	stwio	r3,0(r2)
		{
			LCD_WR_DATA(data);
		}
		LCD_SetCursor(0x00,240);
		data=BLUE;
		for(index=0;index<240*80;index++)
 20028f0:	e0bffe17 	ldw	r2,-8(fp)
 20028f4:	10800044 	addi	r2,r2,1
 20028f8:	e0bffe15 	stw	r2,-8(fp)
 20028fc:	e0bffe17 	ldw	r2,-8(fp)
 2002900:	1092c030 	cmpltui	r2,r2,19200
 2002904:	103ff61e 	bne	r2,zero,20028e0 <LCD_Pattern_Horizon+0xfc>
		{
			LCD_WR_DATA(data);
		}
}
 2002908:	e037883a 	mov	sp,fp
 200290c:	dfc00117 	ldw	ra,4(sp)
 2002910:	df000017 	ldw	fp,0(sp)
 2002914:	dec00204 	addi	sp,sp,8
 2002918:	f800283a 	ret

0200291c <LCD_Pattern_Vertical>:

//-------------------------------------------------------------

void LCD_Pattern_Vertical(void)
{
 200291c:	defff804 	addi	sp,sp,-32
 2002920:	dfc00715 	stw	ra,28(sp)
 2002924:	df000615 	stw	fp,24(sp)
 2002928:	df000604 	addi	fp,sp,24
        int i,j,m;
        alt_u16  data=0;
 200292c:	e03ffd0d 	sth	zero,-12(fp)
        alt_u16  color[4]={WHITE,BLUE,GREEN,RED};
 2002930:	00bfffc4 	movi	r2,-1
 2002934:	e0bffd8d 	sth	r2,-10(fp)
 2002938:	008007c4 	movi	r2,31
 200293c:	e0bffe0d 	sth	r2,-8(fp)
 2002940:	0081f804 	movi	r2,2016
 2002944:	e0bffe8d 	sth	r2,-6(fp)
 2002948:	00be0004 	movi	r2,-2048
 200294c:	e0bfff0d 	sth	r2,-4(fp)
        LCD_SetCursor(0x00,0x0000);
 2002950:	0009883a 	mov	r4,zero
 2002954:	000b883a 	mov	r5,zero
 2002958:	2001fd80 	call	2001fd8 <LCD_SetCursor>
        for(m=0;m<320;m++)
 200295c:	e03ffc15 	stw	zero,-16(fp)
 2002960:	00001e06 	br	20029dc <LCD_Pattern_Vertical+0xc0>
        {
			for(i=0;i<4;i++)
 2002964:	e03ffa15 	stw	zero,-24(fp)
 2002968:	00001606 	br	20029c4 <LCD_Pattern_Vertical+0xa8>
			{
				data=color[i];
 200296c:	e0bffa17 	ldw	r2,-24(fp)
 2002970:	1085883a 	add	r2,r2,r2
 2002974:	e0fffa04 	addi	r3,fp,-24
 2002978:	1885883a 	add	r2,r3,r2
 200297c:	10800384 	addi	r2,r2,14
 2002980:	1080000b 	ldhu	r2,0(r2)
 2002984:	e0bffd0d 	sth	r2,-12(fp)
				for(j=0;j<60;j++)
 2002988:	e03ffb15 	stw	zero,-20(fp)
 200298c:	00000706 	br	20029ac <LCD_Pattern_Vertical+0x90>
				{
					LCD_WR_DATA(data);
 2002990:	e0fffd0b 	ldhu	r3,-12(fp)
 2002994:	00810034 	movhi	r2,1024
 2002998:	1099cd04 	addi	r2,r2,26420
 200299c:	10c00035 	stwio	r3,0(r2)
        for(m=0;m<320;m++)
        {
			for(i=0;i<4;i++)
			{
				data=color[i];
				for(j=0;j<60;j++)
 20029a0:	e0bffb17 	ldw	r2,-20(fp)
 20029a4:	10800044 	addi	r2,r2,1
 20029a8:	e0bffb15 	stw	r2,-20(fp)
 20029ac:	e0bffb17 	ldw	r2,-20(fp)
 20029b0:	10800f10 	cmplti	r2,r2,60
 20029b4:	103ff61e 	bne	r2,zero,2002990 <LCD_Pattern_Vertical+0x74>
        alt_u16  data=0;
        alt_u16  color[4]={WHITE,BLUE,GREEN,RED};
        LCD_SetCursor(0x00,0x0000);
        for(m=0;m<320;m++)
        {
			for(i=0;i<4;i++)
 20029b8:	e0bffa17 	ldw	r2,-24(fp)
 20029bc:	10800044 	addi	r2,r2,1
 20029c0:	e0bffa15 	stw	r2,-24(fp)
 20029c4:	e0bffa17 	ldw	r2,-24(fp)
 20029c8:	10800110 	cmplti	r2,r2,4
 20029cc:	103fe71e 	bne	r2,zero,200296c <LCD_Pattern_Vertical+0x50>
{
        int i,j,m;
        alt_u16  data=0;
        alt_u16  color[4]={WHITE,BLUE,GREEN,RED};
        LCD_SetCursor(0x00,0x0000);
        for(m=0;m<320;m++)
 20029d0:	e0bffc17 	ldw	r2,-16(fp)
 20029d4:	10800044 	addi	r2,r2,1
 20029d8:	e0bffc15 	stw	r2,-16(fp)
 20029dc:	e0bffc17 	ldw	r2,-16(fp)
 20029e0:	10805010 	cmplti	r2,r2,320
 20029e4:	103fdf1e 	bne	r2,zero,2002964 <LCD_Pattern_Vertical+0x48>
				{
					LCD_WR_DATA(data);
				}
			}
        }
}
 20029e8:	e037883a 	mov	sp,fp
 20029ec:	dfc00117 	ldw	ra,4(sp)
 20029f0:	df000017 	ldw	fp,0(sp)
 20029f4:	dec00204 	addi	sp,sp,8
 20029f8:	f800283a 	ret

020029fc <Set_BUFFER_FLAG>:

void Set_BUFFER_FLAG(){
 20029fc:	deffff04 	addi	sp,sp,-4
 2002a00:	df000015 	stw	fp,0(sp)
 2002a04:	d839883a 	mov	fp,sp
	IOWR_ALTERA_AVALON_PIO_DATA(LT24_BUFFER_FLAG_BASE,0x01);
 2002a08:	00c00044 	movi	r3,1
 2002a0c:	00810034 	movhi	r2,1024
 2002a10:	1099b404 	addi	r2,r2,26320
 2002a14:	10c00035 	stwio	r3,0(r2)
	LCD_WR_REG(0x002c);
 2002a18:	00c00b04 	movi	r3,44
 2002a1c:	00810034 	movhi	r2,1024
 2002a20:	1099cc04 	addi	r2,r2,26416
 2002a24:	10c00035 	stwio	r3,0(r2)
}
 2002a28:	e037883a 	mov	sp,fp
 2002a2c:	df000017 	ldw	fp,0(sp)
 2002a30:	dec00104 	addi	sp,sp,4
 2002a34:	f800283a 	ret

02002a38 <Clr_BUFFER_FLAG>:

void Clr_BUFFER_FLAG(){
 2002a38:	deffff04 	addi	sp,sp,-4
 2002a3c:	df000015 	stw	fp,0(sp)
 2002a40:	d839883a 	mov	fp,sp
	IOWR_ALTERA_AVALON_PIO_DATA(LT24_BUFFER_FLAG_BASE,0x00);
 2002a44:	0007883a 	mov	r3,zero
 2002a48:	00810034 	movhi	r2,1024
 2002a4c:	1099b404 	addi	r2,r2,26320
 2002a50:	10c00035 	stwio	r3,0(r2)
	LCD_WR_REG(0x002c);
 2002a54:	00c00b04 	movi	r3,44
 2002a58:	00810034 	movhi	r2,1024
 2002a5c:	1099cc04 	addi	r2,r2,26416
 2002a60:	10c00035 	stwio	r3,0(r2)
}
 2002a64:	e037883a 	mov	sp,fp
 2002a68:	df000017 	ldw	fp,0(sp)
 2002a6c:	dec00104 	addi	sp,sp,4
 2002a70:	f800283a 	ret

02002a74 <IsPtInRect>:

//#define BOUND(x, mini, maxi) ((x<(mini)?(mini):( (x>(maxi))?(maxi):(x) )))

//#define COPY_POINT(pt_des, pt_src)  memcpy(&pt_des, &pt_src,sizeof(POINT))

bool IsPtInRect(POINT *pt, RECT *rc){
 2002a74:	defffc04 	addi	sp,sp,-16
 2002a78:	df000315 	stw	fp,12(sp)
 2002a7c:	df000304 	addi	fp,sp,12
 2002a80:	e13ffe15 	stw	r4,-8(fp)
 2002a84:	e17fff15 	stw	r5,-4(fp)
    bool bYes = FALSE;
 2002a88:	e03ffd15 	stw	zero,-12(fp)
    
    if (pt->x >= rc->left && pt->x <= rc->right && pt->y >= rc->top && pt->y <= rc->bottom)
 2002a8c:	e0bffe17 	ldw	r2,-8(fp)
 2002a90:	10c00017 	ldw	r3,0(r2)
 2002a94:	e0bfff17 	ldw	r2,-4(fp)
 2002a98:	10800017 	ldw	r2,0(r2)
 2002a9c:	18801116 	blt	r3,r2,2002ae4 <IsPtInRect+0x70>
 2002aa0:	e0bffe17 	ldw	r2,-8(fp)
 2002aa4:	10800017 	ldw	r2,0(r2)
 2002aa8:	e0ffff17 	ldw	r3,-4(fp)
 2002aac:	18c00117 	ldw	r3,4(r3)
 2002ab0:	18800c16 	blt	r3,r2,2002ae4 <IsPtInRect+0x70>
 2002ab4:	e0bffe17 	ldw	r2,-8(fp)
 2002ab8:	10c00117 	ldw	r3,4(r2)
 2002abc:	e0bfff17 	ldw	r2,-4(fp)
 2002ac0:	10800217 	ldw	r2,8(r2)
 2002ac4:	18800716 	blt	r3,r2,2002ae4 <IsPtInRect+0x70>
 2002ac8:	e0bffe17 	ldw	r2,-8(fp)
 2002acc:	10800117 	ldw	r2,4(r2)
 2002ad0:	e0ffff17 	ldw	r3,-4(fp)
 2002ad4:	18c00317 	ldw	r3,12(r3)
 2002ad8:	18800216 	blt	r3,r2,2002ae4 <IsPtInRect+0x70>
        bYes = TRUE;
 2002adc:	00800044 	movi	r2,1
 2002ae0:	e0bffd15 	stw	r2,-12(fp)
    
    return bYes;
 2002ae4:	e0bffd17 	ldw	r2,-12(fp)
}
 2002ae8:	e037883a 	mov	sp,fp
 2002aec:	df000017 	ldw	fp,0(sp)
 2002af0:	dec00104 	addi	sp,sp,4
 2002af4:	f800283a 	ret

02002af8 <PtSet>:

void PtSet(POINT *pt, int x, int y){
 2002af8:	defffc04 	addi	sp,sp,-16
 2002afc:	df000315 	stw	fp,12(sp)
 2002b00:	df000304 	addi	fp,sp,12
 2002b04:	e13ffd15 	stw	r4,-12(fp)
 2002b08:	e17ffe15 	stw	r5,-8(fp)
 2002b0c:	e1bfff15 	stw	r6,-4(fp)
    pt->x = x;
 2002b10:	e0bffd17 	ldw	r2,-12(fp)
 2002b14:	e0fffe17 	ldw	r3,-8(fp)
 2002b18:	10c00015 	stw	r3,0(r2)
    pt->y = y;
 2002b1c:	e0bffd17 	ldw	r2,-12(fp)
 2002b20:	e0ffff17 	ldw	r3,-4(fp)
 2002b24:	10c00115 	stw	r3,4(r2)
}
 2002b28:	e037883a 	mov	sp,fp
 2002b2c:	df000017 	ldw	fp,0(sp)
 2002b30:	dec00104 	addi	sp,sp,4
 2002b34:	f800283a 	ret

02002b38 <RectSet>:

void RectSet(RECT *rc, int left, int right, int top, int bottom){
 2002b38:	defffb04 	addi	sp,sp,-20
 2002b3c:	df000415 	stw	fp,16(sp)
 2002b40:	df000404 	addi	fp,sp,16
 2002b44:	e13ffc15 	stw	r4,-16(fp)
 2002b48:	e17ffd15 	stw	r5,-12(fp)
 2002b4c:	e1bffe15 	stw	r6,-8(fp)
 2002b50:	e1ffff15 	stw	r7,-4(fp)
    rc->left = left;
 2002b54:	e0bffc17 	ldw	r2,-16(fp)
 2002b58:	e0fffd17 	ldw	r3,-12(fp)
 2002b5c:	10c00015 	stw	r3,0(r2)
    rc->right = right;
 2002b60:	e0bffc17 	ldw	r2,-16(fp)
 2002b64:	e0fffe17 	ldw	r3,-8(fp)
 2002b68:	10c00115 	stw	r3,4(r2)
    rc->top = top;
 2002b6c:	e0bffc17 	ldw	r2,-16(fp)
 2002b70:	e0ffff17 	ldw	r3,-4(fp)
 2002b74:	10c00215 	stw	r3,8(r2)
    rc->bottom = bottom;
 2002b78:	e0bffc17 	ldw	r2,-16(fp)
 2002b7c:	e0c00117 	ldw	r3,4(fp)
 2002b80:	10c00315 	stw	r3,12(r2)
}
 2002b84:	e037883a 	mov	sp,fp
 2002b88:	df000017 	ldw	fp,0(sp)
 2002b8c:	dec00104 	addi	sp,sp,4
 2002b90:	f800283a 	ret

02002b94 <RectInflate>:

void RectInflate(RECT *rc, int x, int y){
 2002b94:	defffc04 	addi	sp,sp,-16
 2002b98:	df000315 	stw	fp,12(sp)
 2002b9c:	df000304 	addi	fp,sp,12
 2002ba0:	e13ffd15 	stw	r4,-12(fp)
 2002ba4:	e17ffe15 	stw	r5,-8(fp)
 2002ba8:	e1bfff15 	stw	r6,-4(fp)
    rc->left -= x;
 2002bac:	e0bffd17 	ldw	r2,-12(fp)
 2002bb0:	10c00017 	ldw	r3,0(r2)
 2002bb4:	e0bffe17 	ldw	r2,-8(fp)
 2002bb8:	1887c83a 	sub	r3,r3,r2
 2002bbc:	e0bffd17 	ldw	r2,-12(fp)
 2002bc0:	10c00015 	stw	r3,0(r2)
    rc->right += x;
 2002bc4:	e0bffd17 	ldw	r2,-12(fp)
 2002bc8:	10c00117 	ldw	r3,4(r2)
 2002bcc:	e0bffe17 	ldw	r2,-8(fp)
 2002bd0:	1887883a 	add	r3,r3,r2
 2002bd4:	e0bffd17 	ldw	r2,-12(fp)
 2002bd8:	10c00115 	stw	r3,4(r2)
    rc->top -= y;
 2002bdc:	e0bffd17 	ldw	r2,-12(fp)
 2002be0:	10c00217 	ldw	r3,8(r2)
 2002be4:	e0bfff17 	ldw	r2,-4(fp)
 2002be8:	1887c83a 	sub	r3,r3,r2
 2002bec:	e0bffd17 	ldw	r2,-12(fp)
 2002bf0:	10c00215 	stw	r3,8(r2)
    rc->bottom += y;
 2002bf4:	e0bffd17 	ldw	r2,-12(fp)
 2002bf8:	10c00317 	ldw	r3,12(r2)
 2002bfc:	e0bfff17 	ldw	r2,-4(fp)
 2002c00:	1887883a 	add	r3,r3,r2
 2002c04:	e0bffd17 	ldw	r2,-12(fp)
 2002c08:	10c00315 	stw	r3,12(r2)
}
 2002c0c:	e037883a 	mov	sp,fp
 2002c10:	df000017 	ldw	fp,0(sp)
 2002c14:	dec00104 	addi	sp,sp,4
 2002c18:	f800283a 	ret

02002c1c <RectOffset>:

void RectOffset(RECT *rc, int x, int y){
 2002c1c:	defffc04 	addi	sp,sp,-16
 2002c20:	df000315 	stw	fp,12(sp)
 2002c24:	df000304 	addi	fp,sp,12
 2002c28:	e13ffd15 	stw	r4,-12(fp)
 2002c2c:	e17ffe15 	stw	r5,-8(fp)
 2002c30:	e1bfff15 	stw	r6,-4(fp)
    rc->left += x;
 2002c34:	e0bffd17 	ldw	r2,-12(fp)
 2002c38:	10c00017 	ldw	r3,0(r2)
 2002c3c:	e0bffe17 	ldw	r2,-8(fp)
 2002c40:	1887883a 	add	r3,r3,r2
 2002c44:	e0bffd17 	ldw	r2,-12(fp)
 2002c48:	10c00015 	stw	r3,0(r2)
    rc->right += x;
 2002c4c:	e0bffd17 	ldw	r2,-12(fp)
 2002c50:	10c00117 	ldw	r3,4(r2)
 2002c54:	e0bffe17 	ldw	r2,-8(fp)
 2002c58:	1887883a 	add	r3,r3,r2
 2002c5c:	e0bffd17 	ldw	r2,-12(fp)
 2002c60:	10c00115 	stw	r3,4(r2)
    rc->top += y;
 2002c64:	e0bffd17 	ldw	r2,-12(fp)
 2002c68:	10c00217 	ldw	r3,8(r2)
 2002c6c:	e0bfff17 	ldw	r2,-4(fp)
 2002c70:	1887883a 	add	r3,r3,r2
 2002c74:	e0bffd17 	ldw	r2,-12(fp)
 2002c78:	10c00215 	stw	r3,8(r2)
    rc->bottom += y;
 2002c7c:	e0bffd17 	ldw	r2,-12(fp)
 2002c80:	10c00317 	ldw	r3,12(r2)
 2002c84:	e0bfff17 	ldw	r2,-4(fp)
 2002c88:	1887883a 	add	r3,r3,r2
 2002c8c:	e0bffd17 	ldw	r2,-12(fp)
 2002c90:	10c00315 	stw	r3,12(r2)
}
 2002c94:	e037883a 	mov	sp,fp
 2002c98:	df000017 	ldw	fp,0(sp)
 2002c9c:	dec00104 	addi	sp,sp,4
 2002ca0:	f800283a 	ret

02002ca4 <RectCopy>:

void RectCopy(RECT *rcDes, RECT *rcSrc){
 2002ca4:	defffd04 	addi	sp,sp,-12
 2002ca8:	df000215 	stw	fp,8(sp)
 2002cac:	df000204 	addi	fp,sp,8
 2002cb0:	e13ffe15 	stw	r4,-8(fp)
 2002cb4:	e17fff15 	stw	r5,-4(fp)
    rcDes->left = rcSrc->left;
 2002cb8:	e0bfff17 	ldw	r2,-4(fp)
 2002cbc:	10c00017 	ldw	r3,0(r2)
 2002cc0:	e0bffe17 	ldw	r2,-8(fp)
 2002cc4:	10c00015 	stw	r3,0(r2)
    rcDes->right = rcSrc->right;
 2002cc8:	e0bfff17 	ldw	r2,-4(fp)
 2002ccc:	10c00117 	ldw	r3,4(r2)
 2002cd0:	e0bffe17 	ldw	r2,-8(fp)
 2002cd4:	10c00115 	stw	r3,4(r2)
    rcDes->top = rcSrc->top;
 2002cd8:	e0bfff17 	ldw	r2,-4(fp)
 2002cdc:	10c00217 	ldw	r3,8(r2)
 2002ce0:	e0bffe17 	ldw	r2,-8(fp)
 2002ce4:	10c00215 	stw	r3,8(r2)
    rcDes->bottom = rcSrc->bottom;
 2002ce8:	e0bfff17 	ldw	r2,-4(fp)
 2002cec:	10c00317 	ldw	r3,12(r2)
 2002cf0:	e0bffe17 	ldw	r2,-8(fp)
 2002cf4:	10c00315 	stw	r3,12(r2)
}
 2002cf8:	e037883a 	mov	sp,fp
 2002cfc:	df000017 	ldw	fp,0(sp)
 2002d00:	dec00104 	addi	sp,sp,4
 2002d04:	f800283a 	ret

02002d08 <RectWidth>:

int RectWidth(RECT *rc){
 2002d08:	defffe04 	addi	sp,sp,-8
 2002d0c:	df000115 	stw	fp,4(sp)
 2002d10:	df000104 	addi	fp,sp,4
 2002d14:	e13fff15 	stw	r4,-4(fp)
    return (rc->right-rc->left);
 2002d18:	e0bfff17 	ldw	r2,-4(fp)
 2002d1c:	10c00117 	ldw	r3,4(r2)
 2002d20:	e0bfff17 	ldw	r2,-4(fp)
 2002d24:	10800017 	ldw	r2,0(r2)
 2002d28:	1885c83a 	sub	r2,r3,r2
}
 2002d2c:	e037883a 	mov	sp,fp
 2002d30:	df000017 	ldw	fp,0(sp)
 2002d34:	dec00104 	addi	sp,sp,4
 2002d38:	f800283a 	ret

02002d3c <RectHeight>:

int RectHeight(RECT *rc){
 2002d3c:	defffe04 	addi	sp,sp,-8
 2002d40:	df000115 	stw	fp,4(sp)
 2002d44:	df000104 	addi	fp,sp,4
 2002d48:	e13fff15 	stw	r4,-4(fp)
    return (rc->bottom-rc->top);
 2002d4c:	e0bfff17 	ldw	r2,-4(fp)
 2002d50:	10c00317 	ldw	r3,12(r2)
 2002d54:	e0bfff17 	ldw	r2,-4(fp)
 2002d58:	10800217 	ldw	r2,8(r2)
 2002d5c:	1885c83a 	sub	r2,r3,r2
}
 2002d60:	e037883a 	mov	sp,fp
 2002d64:	df000017 	ldw	fp,0(sp)
 2002d68:	dec00104 	addi	sp,sp,4
 2002d6c:	f800283a 	ret

02002d70 <PtDistance>:

int PtDistance(POINT *pt1, POINT *pt2){
 2002d70:	defff904 	addi	sp,sp,-28
 2002d74:	dfc00615 	stw	ra,24(sp)
 2002d78:	df000515 	stw	fp,20(sp)
 2002d7c:	df000504 	addi	fp,sp,20
 2002d80:	e13ffe15 	stw	r4,-8(fp)
 2002d84:	e17fff15 	stw	r5,-4(fp)
    int nDistance;
    int a, b;
    a = pt1->x - pt2->x;
 2002d88:	e0bffe17 	ldw	r2,-8(fp)
 2002d8c:	10c00017 	ldw	r3,0(r2)
 2002d90:	e0bfff17 	ldw	r2,-4(fp)
 2002d94:	10800017 	ldw	r2,0(r2)
 2002d98:	1885c83a 	sub	r2,r3,r2
 2002d9c:	e0bffb15 	stw	r2,-20(fp)
    b = pt1->y - pt2->y;
 2002da0:	e0bffe17 	ldw	r2,-8(fp)
 2002da4:	10c00117 	ldw	r3,4(r2)
 2002da8:	e0bfff17 	ldw	r2,-4(fp)
 2002dac:	10800117 	ldw	r2,4(r2)
 2002db0:	1885c83a 	sub	r2,r3,r2
 2002db4:	e0bffc15 	stw	r2,-16(fp)
    nDistance = a*a + b*b;
 2002db8:	e0fffb17 	ldw	r3,-20(fp)
 2002dbc:	e0bffb17 	ldw	r2,-20(fp)
 2002dc0:	1887383a 	mul	r3,r3,r2
 2002dc4:	e13ffc17 	ldw	r4,-16(fp)
 2002dc8:	e0bffc17 	ldw	r2,-16(fp)
 2002dcc:	2085383a 	mul	r2,r4,r2
 2002dd0:	1885883a 	add	r2,r3,r2
 2002dd4:	e0bffd15 	stw	r2,-12(fp)
    nDistance = sqrt(nDistance);
 2002dd8:	e13ffd17 	ldw	r4,-12(fp)
 2002ddc:	200a9dc0 	call	200a9dc <__floatsidf>
 2002de0:	100b883a 	mov	r5,r2
 2002de4:	180d883a 	mov	r6,r3
 2002de8:	2809883a 	mov	r4,r5
 2002dec:	300b883a 	mov	r5,r6
 2002df0:	20081ac0 	call	20081ac <sqrt>
 2002df4:	100b883a 	mov	r5,r2
 2002df8:	180d883a 	mov	r6,r3
 2002dfc:	2809883a 	mov	r4,r5
 2002e00:	300b883a 	mov	r5,r6
 2002e04:	200a9540 	call	200a954 <__fixdfsi>
 2002e08:	e0bffd15 	stw	r2,-12(fp)
    
    return nDistance;
 2002e0c:	e0bffd17 	ldw	r2,-12(fp)
}
 2002e10:	e037883a 	mov	sp,fp
 2002e14:	dfc00117 	ldw	ra,4(sp)
 2002e18:	df000017 	ldw	fp,0(sp)
 2002e1c:	dec00204 	addi	sp,sp,8
 2002e20:	f800283a 	ret

02002e24 <PtCopy>:

void PtCopy(POINT *ptDes, POINT *ptSrc){
 2002e24:	defffd04 	addi	sp,sp,-12
 2002e28:	df000215 	stw	fp,8(sp)
 2002e2c:	df000204 	addi	fp,sp,8
 2002e30:	e13ffe15 	stw	r4,-8(fp)
 2002e34:	e17fff15 	stw	r5,-4(fp)
    ptDes->x = ptSrc->x;
 2002e38:	e0bfff17 	ldw	r2,-4(fp)
 2002e3c:	10c00017 	ldw	r3,0(r2)
 2002e40:	e0bffe17 	ldw	r2,-8(fp)
 2002e44:	10c00015 	stw	r3,0(r2)
    ptDes->y = ptSrc->y;
 2002e48:	e0bfff17 	ldw	r2,-4(fp)
 2002e4c:	10c00117 	ldw	r3,4(r2)
 2002e50:	e0bffe17 	ldw	r2,-8(fp)
 2002e54:	10c00115 	stw	r3,4(r2)
}
 2002e58:	e037883a 	mov	sp,fp
 2002e5c:	df000017 	ldw	fp,0(sp)
 2002e60:	dec00104 	addi	sp,sp,4
 2002e64:	f800283a 	ret

02002e68 <vid_clean_screen>:
#include "ILI9341.h"
#endif


// richard add
void vid_clean_screen(alt_video_display* display, int color){
 2002e68:	defffa04 	addi	sp,sp,-24
 2002e6c:	dfc00515 	stw	ra,20(sp)
 2002e70:	df000415 	stw	fp,16(sp)
 2002e74:	df000404 	addi	fp,sp,16
 2002e78:	e13ffe15 	stw	r4,-8(fp)
 2002e7c:	e17fff15 	stw	r5,-4(fp)
    vid_paint_block(0 , 0,display->width, display->height, color, display);
 2002e80:	e0bffe17 	ldw	r2,-8(fp)
 2002e84:	11800117 	ldw	r6,4(r2)
 2002e88:	e0bffe17 	ldw	r2,-8(fp)
 2002e8c:	10c00217 	ldw	r3,8(r2)
 2002e90:	e0bfff17 	ldw	r2,-4(fp)
 2002e94:	d8800015 	stw	r2,0(sp)
 2002e98:	e0bffe17 	ldw	r2,-8(fp)
 2002e9c:	d8800115 	stw	r2,4(sp)
 2002ea0:	0009883a 	mov	r4,zero
 2002ea4:	000b883a 	mov	r5,zero
 2002ea8:	180f883a 	mov	r7,r3
 2002eac:	20039c40 	call	20039c4 <vid_paint_block>
}
 2002eb0:	e037883a 	mov	sp,fp
 2002eb4:	dfc00117 	ldw	ra,4(sp)
 2002eb8:	df000017 	ldw	fp,0(sp)
 2002ebc:	dec00204 	addi	sp,sp,8
 2002ec0:	f800283a 	ret

02002ec4 <vid_draw_line>:
*           vid_draw_horiz_line(), which is much faster than 
*           vid_draw_sloped_line.
*
******************************************************************/
__inline__ void vid_draw_line(int horiz_start, int vert_start, int horiz_end, int vert_end, int width, int color, alt_video_display* display)
{
 2002ec4:	defff704 	addi	sp,sp,-36
 2002ec8:	dfc00815 	stw	ra,32(sp)
 2002ecc:	df000715 	stw	fp,28(sp)
 2002ed0:	df000704 	addi	fp,sp,28
 2002ed4:	e13ffc15 	stw	r4,-16(fp)
 2002ed8:	e17ffd15 	stw	r5,-12(fp)
 2002edc:	e1bffe15 	stw	r6,-8(fp)
 2002ee0:	e1ffff15 	stw	r7,-4(fp)
 
  if( vert_start == vert_end )
 2002ee4:	e0fffd17 	ldw	r3,-12(fp)
 2002ee8:	e0bfff17 	ldw	r2,-4(fp)
 2002eec:	1880101e 	bne	r3,r2,2002f30 <vid_draw_line+0x6c>
//                         (unsigned short)horiz_end,  
//                         (unsigned short)vert_start,
//                         color,
//                         display->buffer_ptrs[display->buffer_being_written]->buffer);

    vid_draw_horiz_line( (unsigned short)horiz_start, 
 2002ef0:	e0bffc17 	ldw	r2,-16(fp)
 2002ef4:	113fffcc 	andi	r4,r2,65535
 2002ef8:	2120001c 	xori	r4,r4,32768
 2002efc:	21200004 	addi	r4,r4,-32768
 2002f00:	e0bffe17 	ldw	r2,-8(fp)
 2002f04:	117fffcc 	andi	r5,r2,65535
 2002f08:	2960001c 	xori	r5,r5,32768
 2002f0c:	29600004 	addi	r5,r5,-32768
                         (unsigned short)horiz_end, 
                         (unsigned short)vert_start,
 2002f10:	e0bffd17 	ldw	r2,-12(fp)
//                         (unsigned short)horiz_end,  
//                         (unsigned short)vert_start,
//                         color,
//                         display->buffer_ptrs[display->buffer_being_written]->buffer);

    vid_draw_horiz_line( (unsigned short)horiz_start, 
 2002f14:	10ffffcc 	andi	r3,r2,65535
 2002f18:	e0800417 	ldw	r2,16(fp)
 2002f1c:	d8800015 	stw	r2,0(sp)
 2002f20:	180d883a 	mov	r6,r3
 2002f24:	e1c00317 	ldw	r7,12(fp)
 2002f28:	2003a580 	call	2003a58 <vid_draw_horiz_line>
 2002f2c:	00001106 	br	2002f74 <vid_draw_line+0xb0>
                         color,
                         display );
  }
  else
  {
    vid_draw_sloped_line( (unsigned short)horiz_start, 
 2002f30:	e0bffc17 	ldw	r2,-16(fp)
 2002f34:	113fffcc 	andi	r4,r2,65535
                          (unsigned short)vert_start, 
 2002f38:	e0bffd17 	ldw	r2,-12(fp)
                         color,
                         display );
  }
  else
  {
    vid_draw_sloped_line( (unsigned short)horiz_start, 
 2002f3c:	117fffcc 	andi	r5,r2,65535
                          (unsigned short)vert_start, 
                          (unsigned short)horiz_end, 
 2002f40:	e0bffe17 	ldw	r2,-8(fp)
                         color,
                         display );
  }
  else
  {
    vid_draw_sloped_line( (unsigned short)horiz_start, 
 2002f44:	11bfffcc 	andi	r6,r2,65535
                          (unsigned short)vert_start, 
                          (unsigned short)horiz_end, 
                          (unsigned short)vert_end, 
 2002f48:	e0bfff17 	ldw	r2,-4(fp)
                         color,
                         display );
  }
  else
  {
    vid_draw_sloped_line( (unsigned short)horiz_start, 
 2002f4c:	10ffffcc 	andi	r3,r2,65535
                          (unsigned short)vert_start, 
                          (unsigned short)horiz_end, 
                          (unsigned short)vert_end, 
                          (unsigned short)width, 
 2002f50:	e0800217 	ldw	r2,8(fp)
                         color,
                         display );
  }
  else
  {
    vid_draw_sloped_line( (unsigned short)horiz_start, 
 2002f54:	10bfffcc 	andi	r2,r2,65535
 2002f58:	d8800015 	stw	r2,0(sp)
 2002f5c:	e0800317 	ldw	r2,12(fp)
 2002f60:	d8800115 	stw	r2,4(sp)
 2002f64:	e0800417 	ldw	r2,16(fp)
 2002f68:	d8800215 	stw	r2,8(sp)
 2002f6c:	180f883a 	mov	r7,r3
 2002f70:	2003c6c0 	call	2003c6c <vid_draw_sloped_line>
                          (unsigned short)vert_end, 
                          (unsigned short)width, 
                          color,
                          display );
  }
}
 2002f74:	e037883a 	mov	sp,fp
 2002f78:	dfc00117 	ldw	ra,4(sp)
 2002f7c:	df000017 	ldw	fp,0(sp)
 2002f80:	dec00204 	addi	sp,sp,8
 2002f84:	f800283a 	ret

02002f88 <vid_scroll_string_quit>:



void vid_scroll_string_quit(vid_text_scroll_struct* scroll)
{
 2002f88:	defffd04 	addi	sp,sp,-12
 2002f8c:	dfc00215 	stw	ra,8(sp)
 2002f90:	df000115 	stw	fp,4(sp)
 2002f94:	df000104 	addi	fp,sp,4
 2002f98:	e13fff15 	stw	r4,-4(fp)
  free(scroll->string);
 2002f9c:	e0bfff17 	ldw	r2,-4(fp)
 2002fa0:	10800517 	ldw	r2,20(r2)
 2002fa4:	1009883a 	mov	r4,r2
 2002fa8:	200ab340 	call	200ab34 <free>
  free(scroll);
 2002fac:	e13fff17 	ldw	r4,-4(fp)
 2002fb0:	200ab340 	call	200ab34 <free>
}
 2002fb4:	e037883a 	mov	sp,fp
 2002fb8:	dfc00117 	ldw	ra,4(sp)
 2002fbc:	df000017 	ldw	fp,0(sp)
 2002fc0:	dec00204 	addi	sp,sp,8
 2002fc4:	f800283a 	ret

02002fc8 <vid_scroll_string_init>:

vid_text_scroll_struct* vid_scroll_string_init(int hbegin, int vbegin, int hend, int f_color, int b_color, char* font, int ms_delay, char *string)
{
 2002fc8:	defff904 	addi	sp,sp,-28
 2002fcc:	dfc00615 	stw	ra,24(sp)
 2002fd0:	df000515 	stw	fp,20(sp)
 2002fd4:	df000504 	addi	fp,sp,20
 2002fd8:	e13ffc15 	stw	r4,-16(fp)
 2002fdc:	e17ffd15 	stw	r5,-12(fp)
 2002fe0:	e1bffe15 	stw	r6,-8(fp)
 2002fe4:	e1ffff15 	stw	r7,-4(fp)
  vid_text_scroll_struct* scroll;
  scroll = malloc(sizeof (vid_text_scroll_struct));
 2002fe8:	01000f04 	movi	r4,60
 2002fec:	200ab200 	call	200ab20 <malloc>
 2002ff0:	e0bffb15 	stw	r2,-20(fp)
  
  scroll->hbegin = hbegin;
 2002ff4:	e0bffb17 	ldw	r2,-20(fp)
 2002ff8:	e0fffc17 	ldw	r3,-16(fp)
 2002ffc:	10c00015 	stw	r3,0(r2)
  scroll->vbegin = vbegin;
 2003000:	e0bffb17 	ldw	r2,-20(fp)
 2003004:	e0fffd17 	ldw	r3,-12(fp)
 2003008:	10c00115 	stw	r3,4(r2)
  scroll->hend = hend;
 200300c:	e0bffb17 	ldw	r2,-20(fp)
 2003010:	e0fffe17 	ldw	r3,-8(fp)
 2003014:	10c00215 	stw	r3,8(r2)
  scroll->f_color = f_color;
 2003018:	e0bffb17 	ldw	r2,-20(fp)
 200301c:	e0ffff17 	ldw	r3,-4(fp)
 2003020:	10c00315 	stw	r3,12(r2)
  scroll->b_color = b_color;
 2003024:	e0bffb17 	ldw	r2,-20(fp)
 2003028:	e0c00217 	ldw	r3,8(fp)
 200302c:	10c00415 	stw	r3,16(r2)
  scroll->string = malloc(strlen(string)+2);
 2003030:	e1000517 	ldw	r4,20(fp)
 2003034:	200b8940 	call	200b894 <strlen>
 2003038:	10800084 	addi	r2,r2,2
 200303c:	1009883a 	mov	r4,r2
 2003040:	200ab200 	call	200ab20 <malloc>
 2003044:	1007883a 	mov	r3,r2
 2003048:	e0bffb17 	ldw	r2,-20(fp)
 200304c:	10c00515 	stw	r3,20(r2)
  strcpy(scroll->string, string);
 2003050:	e0bffb17 	ldw	r2,-20(fp)
 2003054:	10800517 	ldw	r2,20(r2)
 2003058:	1009883a 	mov	r4,r2
 200305c:	e1400517 	ldw	r5,20(fp)
 2003060:	200b8040 	call	200b804 <strcpy>
  scroll->font = font;
 2003064:	e0bffb17 	ldw	r2,-20(fp)
 2003068:	e0c00317 	ldw	r3,12(fp)
 200306c:	10c00615 	stw	r3,24(r2)
  scroll->ms_delay = ms_delay;
 2003070:	e0bffb17 	ldw	r2,-20(fp)
 2003074:	e0c00417 	ldw	r3,16(fp)
 2003078:	10c00715 	stw	r3,28(r2)
 * alt_nticks() returns the elapsed number of system clock ticks since reset.
 */

static ALT_INLINE alt_u32 ALT_ALWAYS_INLINE alt_nticks (void)
{
  return _alt_nticks;
 200307c:	00808134 	movhi	r2,516
 2003080:	10947604 	addi	r2,r2,20952
 2003084:	10800017 	ldw	r2,0(r2)
  scroll->ticks_at_last_move = alt_nticks();
 2003088:	1007883a 	mov	r3,r2
 200308c:	e0bffb17 	ldw	r2,-20(fp)
 2003090:	10c00815 	stw	r3,32(r2)
  scroll->text_scroll_index = 0;
 2003094:	e0bffb17 	ldw	r2,-20(fp)
 2003098:	10000915 	stw	zero,36(r2)
  scroll->text_scroll_started = 0;
 200309c:	e0bffb17 	ldw	r2,-20(fp)
 20030a0:	10000a05 	stb	zero,40(r2)
  scroll->window_width = scroll->hend - scroll->hbegin;
 20030a4:	e0bffb17 	ldw	r2,-20(fp)
 20030a8:	10c00217 	ldw	r3,8(r2)
 20030ac:	e0bffb17 	ldw	r2,-20(fp)
 20030b0:	10800017 	ldw	r2,0(r2)
 20030b4:	1887c83a 	sub	r3,r3,r2
 20030b8:	e0bffb17 	ldw	r2,-20(fp)
 20030bc:	10c00b15 	stw	r3,44(r2)
  scroll->length_of_string = strlen(string);
 20030c0:	e1000517 	ldw	r4,20(fp)
 20030c4:	200b8940 	call	200b894 <strlen>
 20030c8:	1007883a 	mov	r3,r2
 20030cc:	e0bffb17 	ldw	r2,-20(fp)
 20030d0:	10c00c15 	stw	r3,48(r2)
  scroll->string_points = scroll->length_of_string * 8;
 20030d4:	e0bffb17 	ldw	r2,-20(fp)
 20030d8:	10800c17 	ldw	r2,48(r2)
 20030dc:	100690fa 	slli	r3,r2,3
 20030e0:	e0bffb17 	ldw	r2,-20(fp)
 20030e4:	10c00e15 	stw	r3,56(r2)
  scroll->scroll_points = (scroll->window_width + scroll->string_points);
 20030e8:	e0bffb17 	ldw	r2,-20(fp)
 20030ec:	10c00b17 	ldw	r3,44(r2)
 20030f0:	e0bffb17 	ldw	r2,-20(fp)
 20030f4:	10800e17 	ldw	r2,56(r2)
 20030f8:	1887883a 	add	r3,r3,r2
 20030fc:	e0bffb17 	ldw	r2,-20(fp)
 2003100:	10c00d15 	stw	r3,52(r2)
 
  return(scroll);
 2003104:	e0bffb17 	ldw	r2,-20(fp)
  
}
 2003108:	e037883a 	mov	sp,fp
 200310c:	dfc00117 	ldw	ra,4(sp)
 2003110:	df000017 	ldw	fp,0(sp)
 2003114:	dec00204 	addi	sp,sp,8
 2003118:	f800283a 	ret

0200311c <vid_scroll_string>:


int vid_scroll_string(vid_text_scroll_struct* scroll, alt_video_display* display)
{
 200311c:	deffec04 	addi	sp,sp,-80
 2003120:	dfc01315 	stw	ra,76(sp)
 2003124:	df001215 	stw	fp,72(sp)
 2003128:	dc401115 	stw	r17,68(sp)
 200312c:	dc001015 	stw	r16,64(sp)
 2003130:	df001204 	addi	fp,sp,72
 2003134:	e13ffc15 	stw	r4,-16(fp)
 2003138:	e17ffd15 	stw	r5,-12(fp)

  int x_start, x_end, x_index, string_x_index, string_char_index, char_row, char_column;
  char character, column_mask;
  char* font_char_ptr;
  char pixels_to_move_by = 1;
 200313c:	00800044 	movi	r2,1
 2003140:	e0bff605 	stb	r2,-40(fp)
 2003144:	00808134 	movhi	r2,516
 2003148:	10947604 	addi	r2,r2,20952
 200314c:	14000017 	ldw	r16,0(r2)

  // If it's time to move the scroll..
  if (alt_nticks() >= (scroll->ticks_at_last_move + ((alt_ticks_per_second() * (scroll->ms_delay)) / 1000))) {
 2003150:	e0bffc17 	ldw	r2,-16(fp)
 2003154:	10800817 	ldw	r2,32(r2)
 2003158:	1023883a 	mov	r17,r2
 * Obtain the system clock rate in ticks/s. 
 */

static ALT_INLINE alt_u32 ALT_ALWAYS_INLINE alt_ticks_per_second (void)
{
  return _alt_tick_rate;
 200315c:	00808134 	movhi	r2,516
 2003160:	10947504 	addi	r2,r2,20948
 2003164:	10800017 	ldw	r2,0(r2)
 2003168:	e0fffc17 	ldw	r3,-16(fp)
 200316c:	18c00717 	ldw	r3,28(r3)
 2003170:	10c5383a 	mul	r2,r2,r3
 2003174:	1009883a 	mov	r4,r2
 2003178:	0140fa04 	movi	r5,1000
 200317c:	20087080 	call	2008708 <__udivsi3>
 2003180:	8885883a 	add	r2,r17,r2
 2003184:	8080b936 	bltu	r16,r2,200346c <vid_scroll_string+0x350>
 * alt_nticks() returns the elapsed number of system clock ticks since reset.
 */

static ALT_INLINE alt_u32 ALT_ALWAYS_INLINE alt_nticks (void)
{
  return _alt_nticks;
 2003188:	00808134 	movhi	r2,516
 200318c:	10947604 	addi	r2,r2,20952
 2003190:	10800017 	ldw	r2,0(r2)
    scroll->ticks_at_last_move = alt_nticks();
 2003194:	1007883a 	mov	r3,r2
 2003198:	e0bffc17 	ldw	r2,-16(fp)
 200319c:	10c00815 	stw	r3,32(r2)
    
    // Track where we are in the scroll.
    if(scroll->text_scroll_started == 0) {
 20031a0:	e0bffc17 	ldw	r2,-16(fp)
 20031a4:	10800a03 	ldbu	r2,40(r2)
 20031a8:	10803fcc 	andi	r2,r2,255
 20031ac:	1080201c 	xori	r2,r2,128
 20031b0:	10bfe004 	addi	r2,r2,-128
 20031b4:	1000061e 	bne	r2,zero,20031d0 <vid_scroll_string+0xb4>
      scroll->text_scroll_index = 0;
 20031b8:	e0bffc17 	ldw	r2,-16(fp)
 20031bc:	10000915 	stw	zero,36(r2)
      scroll->text_scroll_started = 1;
 20031c0:	e0bffc17 	ldw	r2,-16(fp)
 20031c4:	00c00044 	movi	r3,1
 20031c8:	10c00a05 	stb	r3,40(r2)
 20031cc:	00000e06 	br	2003208 <vid_scroll_string+0xec>
    } else if(scroll->text_scroll_index >= scroll->scroll_points)  {
 20031d0:	e0bffc17 	ldw	r2,-16(fp)
 20031d4:	10c00917 	ldw	r3,36(r2)
 20031d8:	e0bffc17 	ldw	r2,-16(fp)
 20031dc:	10800d17 	ldw	r2,52(r2)
 20031e0:	18800316 	blt	r3,r2,20031f0 <vid_scroll_string+0xd4>
      scroll->text_scroll_started = 0;
 20031e4:	e0bffc17 	ldw	r2,-16(fp)
 20031e8:	10000a05 	stb	zero,40(r2)
 20031ec:	00000606 	br	2003208 <vid_scroll_string+0xec>
    } else {
      scroll->text_scroll_index += pixels_to_move_by;
 20031f0:	e0bffc17 	ldw	r2,-16(fp)
 20031f4:	10c00917 	ldw	r3,36(r2)
 20031f8:	e0bff607 	ldb	r2,-40(fp)
 20031fc:	1887883a 	add	r3,r3,r2
 2003200:	e0bffc17 	ldw	r2,-16(fp)
 2003204:	10c00915 	stw	r3,36(r2)
    }
    
    //Find out where we start
    if (scroll->text_scroll_index < scroll->window_width) {
 2003208:	e0bffc17 	ldw	r2,-16(fp)
 200320c:	10c00917 	ldw	r3,36(r2)
 2003210:	e0bffc17 	ldw	r2,-16(fp)
 2003214:	10800b17 	ldw	r2,44(r2)
 2003218:	18800a0e 	bge	r3,r2,2003244 <vid_scroll_string+0x128>
      x_start = scroll->hbegin + scroll->window_width - scroll->text_scroll_index;
 200321c:	e0bffc17 	ldw	r2,-16(fp)
 2003220:	10c00017 	ldw	r3,0(r2)
 2003224:	e0bffc17 	ldw	r2,-16(fp)
 2003228:	10800b17 	ldw	r2,44(r2)
 200322c:	1887883a 	add	r3,r3,r2
 2003230:	e0bffc17 	ldw	r2,-16(fp)
 2003234:	10800917 	ldw	r2,36(r2)
 2003238:	1885c83a 	sub	r2,r3,r2
 200323c:	e0bff115 	stw	r2,-60(fp)
 2003240:	00000306 	br	2003250 <vid_scroll_string+0x134>
    } else {
      x_start = scroll->hbegin;
 2003244:	e0bffc17 	ldw	r2,-16(fp)
 2003248:	10800017 	ldw	r2,0(r2)
 200324c:	e0bff115 	stw	r2,-60(fp)
    }
    //Find out where we end
    if (scroll->string_points > scroll->text_scroll_index) {
 2003250:	e0bffc17 	ldw	r2,-16(fp)
 2003254:	10800e17 	ldw	r2,56(r2)
 2003258:	e0fffc17 	ldw	r3,-16(fp)
 200325c:	18c00917 	ldw	r3,36(r3)
 2003260:	1880040e 	bge	r3,r2,2003274 <vid_scroll_string+0x158>
      x_end = scroll->hend;
 2003264:	e0bffc17 	ldw	r2,-16(fp)
 2003268:	10800217 	ldw	r2,8(r2)
 200326c:	e0bff215 	stw	r2,-56(fp)
 2003270:	00000906 	br	2003298 <vid_scroll_string+0x17c>
    } else {
      x_end = (scroll->hend - scroll->text_scroll_index + scroll->string_points);
 2003274:	e0bffc17 	ldw	r2,-16(fp)
 2003278:	10c00217 	ldw	r3,8(r2)
 200327c:	e0bffc17 	ldw	r2,-16(fp)
 2003280:	10800917 	ldw	r2,36(r2)
 2003284:	1887c83a 	sub	r3,r3,r2
 2003288:	e0bffc17 	ldw	r2,-16(fp)
 200328c:	10800e17 	ldw	r2,56(r2)
 2003290:	1885883a 	add	r2,r3,r2
 2003294:	e0bff215 	stw	r2,-56(fp)
    }

    // Write the string segment a column (x) at a time
    for(x_index = x_start; x_index < x_end; x_index++) {
 2003298:	e0bff117 	ldw	r2,-60(fp)
 200329c:	e0bff315 	stw	r2,-52(fp)
 20032a0:	00006006 	br	2003424 <vid_scroll_string+0x308>
      // Find the x index we're at within the string
      // If first part of string hasnt yet reached left side of scroll window
      if (scroll->text_scroll_index < scroll->window_width) {
 20032a4:	e0bffc17 	ldw	r2,-16(fp)
 20032a8:	10c00917 	ldw	r3,36(r2)
 20032ac:	e0bffc17 	ldw	r2,-16(fp)
 20032b0:	10800b17 	ldw	r2,44(r2)
 20032b4:	1880050e 	bge	r3,r2,20032cc <vid_scroll_string+0x1b0>
        string_x_index = (x_index - x_start);
 20032b8:	e0fff317 	ldw	r3,-52(fp)
 20032bc:	e0bff117 	ldw	r2,-60(fp)
 20032c0:	1885c83a 	sub	r2,r3,r2
 20032c4:	e0bff415 	stw	r2,-48(fp)
 20032c8:	00000a06 	br	20032f4 <vid_scroll_string+0x1d8>
      } else {
        string_x_index = scroll->text_scroll_index - scroll->window_width + x_index - x_start;
 20032cc:	e0bffc17 	ldw	r2,-16(fp)
 20032d0:	10c00917 	ldw	r3,36(r2)
 20032d4:	e0bffc17 	ldw	r2,-16(fp)
 20032d8:	10800b17 	ldw	r2,44(r2)
 20032dc:	1887c83a 	sub	r3,r3,r2
 20032e0:	e0bff317 	ldw	r2,-52(fp)
 20032e4:	1887883a 	add	r3,r3,r2
 20032e8:	e0bff117 	ldw	r2,-60(fp)
 20032ec:	1885c83a 	sub	r2,r3,r2
 20032f0:	e0bff415 	stw	r2,-48(fp)
      }
      //Find the character we're supposed to be writing
      string_char_index = (string_x_index / 8);
 20032f4:	e0bff417 	ldw	r2,-48(fp)
 20032f8:	1000010e 	bge	r2,zero,2003300 <vid_scroll_string+0x1e4>
 20032fc:	108001c4 	addi	r2,r2,7
 2003300:	1005d0fa 	srai	r2,r2,3
 2003304:	e0bff715 	stw	r2,-36(fp)
      character = scroll->string[string_char_index];
 2003308:	e0bffc17 	ldw	r2,-16(fp)
 200330c:	10c00517 	ldw	r3,20(r2)
 2003310:	e0bff717 	ldw	r2,-36(fp)
 2003314:	1885883a 	add	r2,r3,r2
 2003318:	10800003 	ldbu	r2,0(r2)
 200331c:	e0bff805 	stb	r2,-32(fp)
      char_column = (string_x_index % 8);
 2003320:	e0fff417 	ldw	r3,-48(fp)
 2003324:	00a00034 	movhi	r2,32768
 2003328:	108001c4 	addi	r2,r2,7
 200332c:	1884703a 	and	r2,r3,r2
 2003330:	1000040e 	bge	r2,zero,2003344 <vid_scroll_string+0x228>
 2003334:	10bfffc4 	addi	r2,r2,-1
 2003338:	00fffe04 	movi	r3,-8
 200333c:	10c4b03a 	or	r2,r2,r3
 2003340:	10800044 	addi	r2,r2,1
 2003344:	e0bff915 	stw	r2,-28(fp)
      column_mask = (((unsigned int)0x80) >> char_column);
 2003348:	00c02004 	movi	r3,128
 200334c:	e0bff917 	ldw	r2,-28(fp)
 2003350:	1884d83a 	srl	r2,r3,r2
 2003354:	e0bffa05 	stb	r2,-24(fp)
      font_char_ptr = (scroll->font + ((character - 0x20) * FONT_10PT_ROW));
 2003358:	e0bffc17 	ldw	r2,-16(fp)
 200335c:	10800617 	ldw	r2,24(r2)
 2003360:	e0fff807 	ldb	r3,-32(fp)
 2003364:	18fff804 	addi	r3,r3,-32
 2003368:	18c002e4 	muli	r3,r3,11
 200336c:	10c5883a 	add	r2,r2,r3
 2003370:	e0bffb15 	stw	r2,-20(fp)
      //We have all the data now, so let's write a column
      for(char_row = 0; char_row < 11; char_row++) {
 2003374:	e03ff515 	stw	zero,-44(fp)
 2003378:	00002406 	br	200340c <vid_scroll_string+0x2f0>
        // If the font table says this pixel is on, then set it to the foreground color
        if (*(font_char_ptr + char_row) & column_mask) {
 200337c:	e0bff517 	ldw	r2,-44(fp)
 2003380:	e0fffb17 	ldw	r3,-20(fp)
 2003384:	1885883a 	add	r2,r3,r2
 2003388:	10c00003 	ldbu	r3,0(r2)
 200338c:	e0bffa03 	ldbu	r2,-24(fp)
 2003390:	1884703a 	and	r2,r3,r2
 2003394:	10803fcc 	andi	r2,r2,255
 2003398:	1080201c 	xori	r2,r2,128
 200339c:	10bfe004 	addi	r2,r2,-128
 20033a0:	10000c26 	beq	r2,zero,20033d4 <vid_scroll_string+0x2b8>
          vid_set_pixel(x_index, scroll->vbegin + char_row, scroll->f_color, display); 
 20033a4:	e0bffc17 	ldw	r2,-16(fp)
 20033a8:	10c00117 	ldw	r3,4(r2)
 20033ac:	e0bff517 	ldw	r2,-44(fp)
 20033b0:	1887883a 	add	r3,r3,r2
 20033b4:	e0bffc17 	ldw	r2,-16(fp)
 20033b8:	10800317 	ldw	r2,12(r2)
 20033bc:	e13ff317 	ldw	r4,-52(fp)
 20033c0:	180b883a 	mov	r5,r3
 20033c4:	100d883a 	mov	r6,r2
 20033c8:	e1fffd17 	ldw	r7,-12(fp)
 20033cc:	20038e80 	call	20038e8 <vid_set_pixel>
 20033d0:	00000b06 	br	2003400 <vid_scroll_string+0x2e4>
        // Otherwise, set it to the background color.
        } else {
          vid_set_pixel(x_index, scroll->vbegin + char_row, scroll->b_color, display); //background color
 20033d4:	e0bffc17 	ldw	r2,-16(fp)
 20033d8:	10c00117 	ldw	r3,4(r2)
 20033dc:	e0bff517 	ldw	r2,-44(fp)
 20033e0:	1887883a 	add	r3,r3,r2
 20033e4:	e0bffc17 	ldw	r2,-16(fp)
 20033e8:	10800417 	ldw	r2,16(r2)
 20033ec:	e13ff317 	ldw	r4,-52(fp)
 20033f0:	180b883a 	mov	r5,r3
 20033f4:	100d883a 	mov	r6,r2
 20033f8:	e1fffd17 	ldw	r7,-12(fp)
 20033fc:	20038e80 	call	20038e8 <vid_set_pixel>
      character = scroll->string[string_char_index];
      char_column = (string_x_index % 8);
      column_mask = (((unsigned int)0x80) >> char_column);
      font_char_ptr = (scroll->font + ((character - 0x20) * FONT_10PT_ROW));
      //We have all the data now, so let's write a column
      for(char_row = 0; char_row < 11; char_row++) {
 2003400:	e0bff517 	ldw	r2,-44(fp)
 2003404:	10800044 	addi	r2,r2,1
 2003408:	e0bff515 	stw	r2,-44(fp)
 200340c:	e0bff517 	ldw	r2,-44(fp)
 2003410:	108002d0 	cmplti	r2,r2,11
 2003414:	103fd91e 	bne	r2,zero,200337c <vid_scroll_string+0x260>
    } else {
      x_end = (scroll->hend - scroll->text_scroll_index + scroll->string_points);
    }

    // Write the string segment a column (x) at a time
    for(x_index = x_start; x_index < x_end; x_index++) {
 2003418:	e0bff317 	ldw	r2,-52(fp)
 200341c:	10800044 	addi	r2,r2,1
 2003420:	e0bff315 	stw	r2,-52(fp)
 2003424:	e0fff317 	ldw	r3,-52(fp)
 2003428:	e0bff217 	ldw	r2,-56(fp)
 200342c:	18bf9d16 	blt	r3,r2,20032a4 <vid_scroll_string+0x188>
          vid_set_pixel(x_index, scroll->vbegin + char_row, scroll->b_color, display); //background color
        }
      }
    }
    // Erase the leftover column (x) of the last string we wrote.
    vid_draw_line(x_end, scroll->vbegin, x_end, scroll->vbegin + 10, 1, scroll->b_color, display);
 2003430:	e0bffc17 	ldw	r2,-16(fp)
 2003434:	11400117 	ldw	r5,4(r2)
 2003438:	e0bffc17 	ldw	r2,-16(fp)
 200343c:	10800117 	ldw	r2,4(r2)
 2003440:	11c00284 	addi	r7,r2,10
 2003444:	e0bffc17 	ldw	r2,-16(fp)
 2003448:	10800417 	ldw	r2,16(r2)
 200344c:	00c00044 	movi	r3,1
 2003450:	d8c00015 	stw	r3,0(sp)
 2003454:	d8800115 	stw	r2,4(sp)
 2003458:	e0bffd17 	ldw	r2,-12(fp)
 200345c:	d8800215 	stw	r2,8(sp)
 2003460:	e13ff217 	ldw	r4,-56(fp)
 2003464:	e1bff217 	ldw	r6,-56(fp)
 2003468:	2002ec40 	call	2002ec4 <vid_draw_line>
    // Log what time we moved the scroll.
  }
  return(0);
 200346c:	0005883a 	mov	r2,zero
}
 2003470:	e6fffe04 	addi	sp,fp,-8
 2003474:	dfc00317 	ldw	ra,12(sp)
 2003478:	df000217 	ldw	fp,8(sp)
 200347c:	dc400117 	ldw	r17,4(sp)
 2003480:	dc000017 	ldw	r16,0(sp)
 2003484:	dec00404 	addi	sp,sp,16
 2003488:	f800283a 	ret

0200348c <vid_move_block>:
*           the backfill_color parameter.
*
******************************************************************/

int vid_move_block(int xbegin, int ybegin, int xend, int yend, int x_distance, int y_distance, int backfill_color, alt_video_display* display)
{
 200348c:	defff504 	addi	sp,sp,-44
 2003490:	dfc00a15 	stw	ra,40(sp)
 2003494:	df000915 	stw	fp,36(sp)
 2003498:	df000904 	addi	fp,sp,36
 200349c:	e13ffc15 	stw	r4,-16(fp)
 20034a0:	e17ffd15 	stw	r5,-12(fp)
 20034a4:	e1bffe15 	stw	r6,-8(fp)
 20034a8:	e1ffff15 	stw	r7,-4(fp)
  int read_x, read_y, write_x, write_y;
  short temp_pixel;
  
  if(x_distance <= 0 && y_distance <= 0) {  
 20034ac:	e0800217 	ldw	r2,8(fp)
 20034b0:	00803716 	blt	zero,r2,2003590 <vid_move_block+0x104>
 20034b4:	e0800317 	ldw	r2,12(fp)
 20034b8:	00803516 	blt	zero,r2,2003590 <vid_move_block+0x104>
    //Move by rows because they are contiguous in memory (could help speed if in SDRAM)
    for (read_y = ybegin; read_y < yend; read_y++) {
 20034bc:	e0bffd17 	ldw	r2,-12(fp)
 20034c0:	e0bff815 	stw	r2,-32(fp)
 20034c4:	00002f06 	br	2003584 <vid_move_block+0xf8>
      write_y = read_y + y_distance;
 20034c8:	e0fff817 	ldw	r3,-32(fp)
 20034cc:	e0800317 	ldw	r2,12(fp)
 20034d0:	1885883a 	add	r2,r3,r2
 20034d4:	e0bff915 	stw	r2,-28(fp)
      for(read_x = xbegin; read_x < xend; read_x++) {
 20034d8:	e0bffc17 	ldw	r2,-16(fp)
 20034dc:	e0bff715 	stw	r2,-36(fp)
 20034e0:	00002206 	br	200356c <vid_move_block+0xe0>
        write_x = read_x + x_distance;
 20034e4:	e0fff717 	ldw	r3,-36(fp)
 20034e8:	e0800217 	ldw	r2,8(fp)
 20034ec:	1885883a 	add	r2,r3,r2
 20034f0:	e0bffa15 	stw	r2,-24(fp)
        temp_pixel = vid_get_pixel(read_x, read_y, display);
 20034f4:	e13ff717 	ldw	r4,-36(fp)
 20034f8:	e17ff817 	ldw	r5,-32(fp)
 20034fc:	e1800517 	ldw	r6,20(fp)
 2003500:	20039840 	call	2003984 <vid_get_pixel>
 2003504:	e0bffb0d 	sth	r2,-20(fp)
        vid_set_pixel(write_x, write_y, temp_pixel, display);
 2003508:	e0bffb0f 	ldh	r2,-20(fp)
 200350c:	e13ffa17 	ldw	r4,-24(fp)
 2003510:	e17ff917 	ldw	r5,-28(fp)
 2003514:	100d883a 	mov	r6,r2
 2003518:	e1c00517 	ldw	r7,20(fp)
 200351c:	20038e80 	call	20038e8 <vid_set_pixel>
        if(read_x >= xend + x_distance || read_y >= yend + y_distance) 
 2003520:	e0fffe17 	ldw	r3,-8(fp)
 2003524:	e0800217 	ldw	r2,8(fp)
 2003528:	1885883a 	add	r2,r3,r2
 200352c:	e0fff717 	ldw	r3,-36(fp)
 2003530:	1880050e 	bge	r3,r2,2003548 <vid_move_block+0xbc>
 2003534:	e0ffff17 	ldw	r3,-4(fp)
 2003538:	e0800317 	ldw	r2,12(fp)
 200353c:	1885883a 	add	r2,r3,r2
 2003540:	e0fff817 	ldw	r3,-32(fp)
 2003544:	18800616 	blt	r3,r2,2003560 <vid_move_block+0xd4>
        {
	        vid_set_pixel(read_x, read_y, backfill_color, display);
 2003548:	e0800417 	ldw	r2,16(fp)
 200354c:	e13ff717 	ldw	r4,-36(fp)
 2003550:	e17ff817 	ldw	r5,-32(fp)
 2003554:	100d883a 	mov	r6,r2
 2003558:	e1c00517 	ldw	r7,20(fp)
 200355c:	20038e80 	call	20038e8 <vid_set_pixel>
  
  if(x_distance <= 0 && y_distance <= 0) {  
    //Move by rows because they are contiguous in memory (could help speed if in SDRAM)
    for (read_y = ybegin; read_y < yend; read_y++) {
      write_y = read_y + y_distance;
      for(read_x = xbegin; read_x < xend; read_x++) {
 2003560:	e0bff717 	ldw	r2,-36(fp)
 2003564:	10800044 	addi	r2,r2,1
 2003568:	e0bff715 	stw	r2,-36(fp)
 200356c:	e0fff717 	ldw	r3,-36(fp)
 2003570:	e0bffe17 	ldw	r2,-8(fp)
 2003574:	18bfdb16 	blt	r3,r2,20034e4 <vid_move_block+0x58>
  int read_x, read_y, write_x, write_y;
  short temp_pixel;
  
  if(x_distance <= 0 && y_distance <= 0) {  
    //Move by rows because they are contiguous in memory (could help speed if in SDRAM)
    for (read_y = ybegin; read_y < yend; read_y++) {
 2003578:	e0bff817 	ldw	r2,-32(fp)
 200357c:	10800044 	addi	r2,r2,1
 2003580:	e0bff815 	stw	r2,-32(fp)
 2003584:	e0fff817 	ldw	r3,-32(fp)
 2003588:	e0bfff17 	ldw	r2,-4(fp)
 200358c:	18bfce16 	blt	r3,r2,20034c8 <vid_move_block+0x3c>
	        vid_set_pixel(read_x, read_y, backfill_color, display);
        }
      }
    }
  }
  return (0);
 2003590:	0005883a 	mov	r2,zero
}
 2003594:	e037883a 	mov	sp,fp
 2003598:	dfc00117 	ldw	ra,4(sp)
 200359c:	df000017 	ldw	fp,0(sp)
 20035a0:	dec00204 	addi	sp,sp,8
 20035a4:	f800283a 	ret

020035a8 <vid_print_string>:
*           using the specified font and color.
*           Calls vid_print_char
*
******************************************************************/
int vid_print_string(int horiz_offset, int vert_offset, int color, char *font, alt_video_display* display, char string[])
{
 20035a8:	defff604 	addi	sp,sp,-40
 20035ac:	dfc00915 	stw	ra,36(sp)
 20035b0:	df000815 	stw	fp,32(sp)
 20035b4:	df000804 	addi	fp,sp,32
 20035b8:	e13ffc15 	stw	r4,-16(fp)
 20035bc:	e17ffd15 	stw	r5,-12(fp)
 20035c0:	e1bffe15 	stw	r6,-8(fp)
 20035c4:	e1ffff15 	stw	r7,-4(fp)
  int i = 0;
 20035c8:	e03ffa15 	stw	zero,-24(fp)
  int original_horiz_offset;

  original_horiz_offset = horiz_offset;
 20035cc:	e0bffc17 	ldw	r2,-16(fp)
 20035d0:	e0bffb15 	stw	r2,-20(fp)

  // Print until we hit the '\0' char.
  while (string[i]) {
 20035d4:	00002806 	br	2003678 <vid_print_string+0xd0>
    //Handle newline char here.
    if (string[i] == '\n') {
 20035d8:	e0bffa17 	ldw	r2,-24(fp)
 20035dc:	e0c00317 	ldw	r3,12(fp)
 20035e0:	1885883a 	add	r2,r3,r2
 20035e4:	10800003 	ldbu	r2,0(r2)
 20035e8:	10803fcc 	andi	r2,r2,255
 20035ec:	1080201c 	xori	r2,r2,128
 20035f0:	10bfe004 	addi	r2,r2,-128
 20035f4:	10800298 	cmpnei	r2,r2,10
 20035f8:	1000091e 	bne	r2,zero,2003620 <vid_print_string+0x78>
      horiz_offset = original_horiz_offset;
 20035fc:	e0bffb17 	ldw	r2,-20(fp)
 2003600:	e0bffc15 	stw	r2,-16(fp)
      vert_offset += 12;
 2003604:	e0bffd17 	ldw	r2,-12(fp)
 2003608:	10800304 	addi	r2,r2,12
 200360c:	e0bffd15 	stw	r2,-12(fp)
      i++;
 2003610:	e0bffa17 	ldw	r2,-24(fp)
 2003614:	10800044 	addi	r2,r2,1
 2003618:	e0bffa15 	stw	r2,-24(fp)
      continue;
 200361c:	00001606 	br	2003678 <vid_print_string+0xd0>
    }
    // Lay down that character and increment our offsets.
    vid_print_char (horiz_offset, vert_offset, color, string[i], font, display);
 2003620:	e0bffa17 	ldw	r2,-24(fp)
 2003624:	e0c00317 	ldw	r3,12(fp)
 2003628:	1885883a 	add	r2,r3,r2
 200362c:	10800003 	ldbu	r2,0(r2)
 2003630:	10c03fcc 	andi	r3,r2,255
 2003634:	18c0201c 	xori	r3,r3,128
 2003638:	18ffe004 	addi	r3,r3,-128
 200363c:	e0bfff17 	ldw	r2,-4(fp)
 2003640:	d8800015 	stw	r2,0(sp)
 2003644:	e0800217 	ldw	r2,8(fp)
 2003648:	d8800115 	stw	r2,4(sp)
 200364c:	e13ffc17 	ldw	r4,-16(fp)
 2003650:	e17ffd17 	ldw	r5,-12(fp)
 2003654:	e1bffe17 	ldw	r6,-8(fp)
 2003658:	180f883a 	mov	r7,r3
 200365c:	20037f80 	call	20037f8 <vid_print_char>
    i++;
 2003660:	e0bffa17 	ldw	r2,-24(fp)
 2003664:	10800044 	addi	r2,r2,1
 2003668:	e0bffa15 	stw	r2,-24(fp)
    horiz_offset += 8;
 200366c:	e0bffc17 	ldw	r2,-16(fp)
 2003670:	10800204 	addi	r2,r2,8
 2003674:	e0bffc15 	stw	r2,-16(fp)
  int original_horiz_offset;

  original_horiz_offset = horiz_offset;

  // Print until we hit the '\0' char.
  while (string[i]) {
 2003678:	e0bffa17 	ldw	r2,-24(fp)
 200367c:	e0c00317 	ldw	r3,12(fp)
 2003680:	1885883a 	add	r2,r3,r2
 2003684:	10800003 	ldbu	r2,0(r2)
 2003688:	10803fcc 	andi	r2,r2,255
 200368c:	1080201c 	xori	r2,r2,128
 2003690:	10bfe004 	addi	r2,r2,-128
 2003694:	103fd01e 	bne	r2,zero,20035d8 <vid_print_string+0x30>
    // Lay down that character and increment our offsets.
    vid_print_char (horiz_offset, vert_offset, color, string[i], font, display);
    i++;
    horiz_offset += 8;
  }
  return (0);
 2003698:	0005883a 	mov	r2,zero
}
 200369c:	e037883a 	mov	sp,fp
 20036a0:	dfc00117 	ldw	ra,4(sp)
 20036a4:	df000017 	ldw	fp,0(sp)
 20036a8:	dec00204 	addi	sp,sp,8
 20036ac:	f800283a 	ret

020036b0 <vid_draw_box>:
*  points.  The fill parameter tells the function whether or not
*  to fill in the box.  1 = fill, 0 = do not fill.
*
******************************************************************/
int vid_draw_box (int horiz_start, int vert_start, int horiz_end, int vert_end, int color, int fill, alt_video_display* display)
{
 20036b0:	defff704 	addi	sp,sp,-36
 20036b4:	dfc00815 	stw	ra,32(sp)
 20036b8:	df000715 	stw	fp,28(sp)
 20036bc:	df000704 	addi	fp,sp,28
 20036c0:	e13ffc15 	stw	r4,-16(fp)
 20036c4:	e17ffd15 	stw	r5,-12(fp)
 20036c8:	e1bffe15 	stw	r6,-8(fp)
 20036cc:	e1ffff15 	stw	r7,-4(fp)

  // If we want to fill in our box
  if (fill) {
 20036d0:	e0800317 	ldw	r2,12(fp)
 20036d4:	10000a26 	beq	r2,zero,2003700 <vid_draw_box+0x50>
     vid_paint_block (horiz_start, vert_start, horiz_end, vert_end, color, display);
 20036d8:	e0800217 	ldw	r2,8(fp)
 20036dc:	d8800015 	stw	r2,0(sp)
 20036e0:	e0800417 	ldw	r2,16(fp)
 20036e4:	d8800115 	stw	r2,4(sp)
 20036e8:	e13ffc17 	ldw	r4,-16(fp)
 20036ec:	e17ffd17 	ldw	r5,-12(fp)
 20036f0:	e1bffe17 	ldw	r6,-8(fp)
 20036f4:	e1ffff17 	ldw	r7,-4(fp)
 20036f8:	20039c40 	call	20039c4 <vid_paint_block>
 20036fc:	00003806 	br	20037e0 <vid_draw_box+0x130>
  // If we're not filling in the box, just draw four lines.
  } else {
    vid_draw_line(horiz_start, vert_start, horiz_start, vert_end-1, 1, color, display);
 2003700:	e0bfff17 	ldw	r2,-4(fp)
 2003704:	10ffffc4 	addi	r3,r2,-1
 2003708:	00800044 	movi	r2,1
 200370c:	d8800015 	stw	r2,0(sp)
 2003710:	e0800217 	ldw	r2,8(fp)
 2003714:	d8800115 	stw	r2,4(sp)
 2003718:	e0800417 	ldw	r2,16(fp)
 200371c:	d8800215 	stw	r2,8(sp)
 2003720:	e13ffc17 	ldw	r4,-16(fp)
 2003724:	e17ffd17 	ldw	r5,-12(fp)
 2003728:	e1bffc17 	ldw	r6,-16(fp)
 200372c:	180f883a 	mov	r7,r3
 2003730:	2002ec40 	call	2002ec4 <vid_draw_line>
    vid_draw_line(horiz_end-1, vert_start, horiz_end-1, vert_end-1, 1, color, display);
 2003734:	e0bffe17 	ldw	r2,-8(fp)
 2003738:	113fffc4 	addi	r4,r2,-1
 200373c:	e0bffe17 	ldw	r2,-8(fp)
 2003740:	11bfffc4 	addi	r6,r2,-1
 2003744:	e0bfff17 	ldw	r2,-4(fp)
 2003748:	10ffffc4 	addi	r3,r2,-1
 200374c:	00800044 	movi	r2,1
 2003750:	d8800015 	stw	r2,0(sp)
 2003754:	e0800217 	ldw	r2,8(fp)
 2003758:	d8800115 	stw	r2,4(sp)
 200375c:	e0800417 	ldw	r2,16(fp)
 2003760:	d8800215 	stw	r2,8(sp)
 2003764:	e17ffd17 	ldw	r5,-12(fp)
 2003768:	180f883a 	mov	r7,r3
 200376c:	2002ec40 	call	2002ec4 <vid_draw_line>
    vid_draw_line(horiz_start, vert_start, horiz_end-1, vert_start, 1, color, display);
 2003770:	e0bffe17 	ldw	r2,-8(fp)
 2003774:	10ffffc4 	addi	r3,r2,-1
 2003778:	00800044 	movi	r2,1
 200377c:	d8800015 	stw	r2,0(sp)
 2003780:	e0800217 	ldw	r2,8(fp)
 2003784:	d8800115 	stw	r2,4(sp)
 2003788:	e0800417 	ldw	r2,16(fp)
 200378c:	d8800215 	stw	r2,8(sp)
 2003790:	e13ffc17 	ldw	r4,-16(fp)
 2003794:	e17ffd17 	ldw	r5,-12(fp)
 2003798:	180d883a 	mov	r6,r3
 200379c:	e1fffd17 	ldw	r7,-12(fp)
 20037a0:	2002ec40 	call	2002ec4 <vid_draw_line>
    vid_draw_line(horiz_start, vert_end-1, horiz_end-1, vert_end-1, 1, color, display);
 20037a4:	e0bfff17 	ldw	r2,-4(fp)
 20037a8:	117fffc4 	addi	r5,r2,-1
 20037ac:	e0bffe17 	ldw	r2,-8(fp)
 20037b0:	11bfffc4 	addi	r6,r2,-1
 20037b4:	e0bfff17 	ldw	r2,-4(fp)
 20037b8:	10ffffc4 	addi	r3,r2,-1
 20037bc:	00800044 	movi	r2,1
 20037c0:	d8800015 	stw	r2,0(sp)
 20037c4:	e0800217 	ldw	r2,8(fp)
 20037c8:	d8800115 	stw	r2,4(sp)
 20037cc:	e0800417 	ldw	r2,16(fp)
 20037d0:	d8800215 	stw	r2,8(sp)
 20037d4:	e13ffc17 	ldw	r4,-16(fp)
 20037d8:	180f883a 	mov	r7,r3
 20037dc:	2002ec40 	call	2002ec4 <vid_draw_line>
  }

  return (0);
 20037e0:	0005883a 	mov	r2,zero
}
 20037e4:	e037883a 	mov	sp,fp
 20037e8:	dfc00117 	ldw	ra,4(sp)
 20037ec:	df000017 	ldw	fp,0(sp)
 20037f0:	dec00204 	addi	sp,sp,8
 20037f4:	f800283a 	ret

020037f8 <vid_print_char>:
*           screen using the specified font and color.
*
******************************************************************/

int vid_print_char (int horiz_offset, int vert_offset, int color, char character, char *font, alt_video_display* display)
{
 20037f8:	defff704 	addi	sp,sp,-36
 20037fc:	dfc00815 	stw	ra,32(sp)
 2003800:	df000715 	stw	fp,28(sp)
 2003804:	df000704 	addi	fp,sp,28
 2003808:	e13ffc15 	stw	r4,-16(fp)
 200380c:	e17ffd15 	stw	r5,-12(fp)
 2003810:	e1bffe15 	stw	r6,-8(fp)
 2003814:	3805883a 	mov	r2,r7
 2003818:	e0bfff05 	stb	r2,-4(fp)
  int i, j;
  
  char temp_char, char_row;

  // Convert the ASCII value to an array offset
  temp_char = (character - 0x20);
 200381c:	e0bfff03 	ldbu	r2,-4(fp)
 2003820:	10bff804 	addi	r2,r2,-32
 2003824:	e0bffb05 	stb	r2,-20(fp)

  //Each character is 8 pixels wide and 11 tall.
  for(i = 0; i < 11; i++) {
 2003828:	e03ff915 	stw	zero,-28(fp)
 200382c:	00002506 	br	20038c4 <vid_print_char+0xcc>
      char_row = *(font + (temp_char * FONT_10PT_ROW) + i);
 2003830:	e0bffb07 	ldb	r2,-20(fp)
 2003834:	108002e4 	muli	r2,r2,11
 2003838:	1007883a 	mov	r3,r2
 200383c:	e0bff917 	ldw	r2,-28(fp)
 2003840:	1885883a 	add	r2,r3,r2
 2003844:	e0c00217 	ldw	r3,8(fp)
 2003848:	1885883a 	add	r2,r3,r2
 200384c:	10800003 	ldbu	r2,0(r2)
 2003850:	e0bffb45 	stb	r2,-19(fp)
    for (j = 0; j < 8; j++) {
 2003854:	e03ffa15 	stw	zero,-24(fp)
 2003858:	00001406 	br	20038ac <vid_print_char+0xb4>
      //If the font table says the pixel in this location is on for this character, then set it.
      if (char_row & (((unsigned char)0x80) >> j)) {
 200385c:	e0fffb47 	ldb	r3,-19(fp)
 2003860:	01002004 	movi	r4,128
 2003864:	e0bffa17 	ldw	r2,-24(fp)
 2003868:	2085d83a 	sra	r2,r4,r2
 200386c:	1884703a 	and	r2,r3,r2
 2003870:	10000b26 	beq	r2,zero,20038a0 <vid_print_char+0xa8>
        vid_set_pixel((horiz_offset + j), (vert_offset + i), color, display); // plot the pixel
 2003874:	e0fffc17 	ldw	r3,-16(fp)
 2003878:	e0bffa17 	ldw	r2,-24(fp)
 200387c:	1889883a 	add	r4,r3,r2
 2003880:	e0fffd17 	ldw	r3,-12(fp)
 2003884:	e0bff917 	ldw	r2,-28(fp)
 2003888:	1887883a 	add	r3,r3,r2
 200388c:	e0bffe17 	ldw	r2,-8(fp)
 2003890:	180b883a 	mov	r5,r3
 2003894:	100d883a 	mov	r6,r2
 2003898:	e1c00317 	ldw	r7,12(fp)
 200389c:	20038e80 	call	20038e8 <vid_set_pixel>
  temp_char = (character - 0x20);

  //Each character is 8 pixels wide and 11 tall.
  for(i = 0; i < 11; i++) {
      char_row = *(font + (temp_char * FONT_10PT_ROW) + i);
    for (j = 0; j < 8; j++) {
 20038a0:	e0bffa17 	ldw	r2,-24(fp)
 20038a4:	10800044 	addi	r2,r2,1
 20038a8:	e0bffa15 	stw	r2,-24(fp)
 20038ac:	e0bffa17 	ldw	r2,-24(fp)
 20038b0:	10800210 	cmplti	r2,r2,8
 20038b4:	103fe91e 	bne	r2,zero,200385c <vid_print_char+0x64>

  // Convert the ASCII value to an array offset
  temp_char = (character - 0x20);

  //Each character is 8 pixels wide and 11 tall.
  for(i = 0; i < 11; i++) {
 20038b8:	e0bff917 	ldw	r2,-28(fp)
 20038bc:	10800044 	addi	r2,r2,1
 20038c0:	e0bff915 	stw	r2,-28(fp)
 20038c4:	e0bff917 	ldw	r2,-28(fp)
 20038c8:	108002d0 	cmplti	r2,r2,11
 20038cc:	103fd81e 	bne	r2,zero,2003830 <vid_print_char+0x38>
      if (char_row & (((unsigned char)0x80) >> j)) {
        vid_set_pixel((horiz_offset + j), (vert_offset + i), color, display); // plot the pixel
      }
    }
  }
  return(0);
 20038d0:	0005883a 	mov	r2,zero
}
 20038d4:	e037883a 	mov	sp,fp
 20038d8:	dfc00117 	ldw	ra,4(sp)
 20038dc:	df000017 	ldw	fp,0(sp)
 20038e0:	dec00204 	addi	sp,sp,8
 20038e4:	f800283a 	ret

020038e8 <vid_set_pixel>:
*           efficient when painting large areas of the screen.
*
******************************************************************/

void vid_set_pixel(int horiz, int vert, unsigned int color, alt_video_display* display)
{
 20038e8:	defff904 	addi	sp,sp,-28
 20038ec:	dfc00615 	stw	ra,24(sp)
 20038f0:	df000515 	stw	fp,20(sp)
 20038f4:	df000504 	addi	fp,sp,20
 20038f8:	e13ffc15 	stw	r4,-16(fp)
 20038fc:	e17ffd15 	stw	r5,-12(fp)
 2003900:	e1bffe15 	stw	r6,-8(fp)
 2003904:	e1ffff15 	stw	r7,-4(fp)
#ifdef LT24
	alt_u16 color16;


	// encode to RGB  5 6 5
	color16 = (color & 0xFF) >> 3; // blue
 2003908:	e0bffe17 	ldw	r2,-8(fp)
 200390c:	10803fcc 	andi	r2,r2,255
 2003910:	1004d0fa 	srli	r2,r2,3
 2003914:	e0bffb0d 	sth	r2,-20(fp)
	color16 |= (color & 0xFC00) >> 5; // green
 2003918:	e0bffe17 	ldw	r2,-8(fp)
 200391c:	10bf000c 	andi	r2,r2,64512
 2003920:	1004d17a 	srli	r2,r2,5
 2003924:	1007883a 	mov	r3,r2
 2003928:	e0bffb0b 	ldhu	r2,-20(fp)
 200392c:	1884b03a 	or	r2,r3,r2
 2003930:	e0bffb0d 	sth	r2,-20(fp)
	color16 |= (color & 0xF80000) >> 8; // blue
 2003934:	e0bffe17 	ldw	r2,-8(fp)
 2003938:	10803e2c 	andhi	r2,r2,248
 200393c:	1004d23a 	srli	r2,r2,8
 2003940:	1007883a 	mov	r3,r2
 2003944:	e0bffb0b 	ldhu	r2,-20(fp)
 2003948:	1884b03a 	or	r2,r3,r2
 200394c:	e0bffb0d 	sth	r2,-20(fp)
	LCD_DrawPoint(horiz, vert, color16);
 2003950:	e0bffc17 	ldw	r2,-16(fp)
 2003954:	113fffcc 	andi	r4,r2,65535
 2003958:	e0bffd17 	ldw	r2,-12(fp)
 200395c:	10ffffcc 	andi	r3,r2,65535
 2003960:	e0bffb0b 	ldhu	r2,-20(fp)
 2003964:	180b883a 	mov	r5,r3
 2003968:	100d883a 	mov	r6,r2
 200396c:	200210c0 	call	200210c <LCD_DrawPoint>
  	addr = ( ( (int)(VIPFR_GetDrawFrame(display)) )+ (vert * (display->width * 2)) + horiz * 2);
  	IOWR_16DIRECT( addr, 0, (int)(color));
	}
#endif

}
 2003970:	e037883a 	mov	sp,fp
 2003974:	dfc00117 	ldw	ra,4(sp)
 2003978:	df000017 	ldw	fp,0(sp)
 200397c:	dec00204 	addi	sp,sp,8
 2003980:	f800283a 	ret

02003984 <vid_get_pixel>:
*  Purpose: Reads the color of the pixel at the given coordinates
*
******************************************************************/

short vid_get_pixel(int horiz, int vert, alt_video_display* display)
{
 2003984:	defffb04 	addi	sp,sp,-20
 2003988:	dfc00415 	stw	ra,16(sp)
 200398c:	df000315 	stw	fp,12(sp)
 2003990:	df000304 	addi	fp,sp,12
 2003994:	e13ffd15 	stw	r4,-12(fp)
 2003998:	e17ffe15 	stw	r5,-8(fp)
 200399c:	e1bfff15 	stw	r6,-4(fp)
#ifdef LT24
	printf("vid_get_pixel is not implemented\r\n");
 20039a0:	01008134 	movhi	r4,516
 20039a4:	2136d904 	addi	r4,r4,-9372
 20039a8:	200b65c0 	call	200b65c <puts>
	return(0);
 20039ac:	0005883a 	mov	r2,zero
  int addr;
  
  addr = ( ( (int)(VIPFR_GetDrawFrame(display)) )+ (vert * (display->width * 2)) + horiz * 2);
  return(IORD_16DIRECT(addr, 0));
#endif
}
 20039b0:	e037883a 	mov	sp,fp
 20039b4:	dfc00117 	ldw	ra,4(sp)
 20039b8:	df000017 	ldw	fp,0(sp)
 20039bc:	dec00204 	addi	sp,sp,8
 20039c0:	f800283a 	ret

020039c4 <vid_paint_block>:
*           The color parameter must contain two pixel's worth
*           (32 bits).
*
******************************************************************/
void vid_paint_block (int Hstart,int Vstart, int Hend, int Vend, int color, alt_video_display* display)
{
 20039c4:	defff804 	addi	sp,sp,-32
 20039c8:	dfc00715 	stw	ra,28(sp)
 20039cc:	df000615 	stw	fp,24(sp)
 20039d0:	df000604 	addi	fp,sp,24
 20039d4:	e13ffc15 	stw	r4,-16(fp)
 20039d8:	e17ffd15 	stw	r5,-12(fp)
 20039dc:	e1bffe15 	stw	r6,-8(fp)
 20039e0:	e1ffff15 	stw	r7,-4(fp)
#ifdef LT24
	int x,y;
	for(y=Vstart;y<Vend;y++){
 20039e4:	e0bffd17 	ldw	r2,-12(fp)
 20039e8:	e0bffb15 	stw	r2,-20(fp)
 20039ec:	00001206 	br	2003a38 <vid_paint_block+0x74>
		for(x=Hstart;x<Hend;x++){
 20039f0:	e0bffc17 	ldw	r2,-16(fp)
 20039f4:	e0bffa15 	stw	r2,-24(fp)
 20039f8:	00000906 	br	2003a20 <vid_paint_block+0x5c>
			vid_set_pixel(x, y, color, display);
 20039fc:	e0800217 	ldw	r2,8(fp)
 2003a00:	e13ffa17 	ldw	r4,-24(fp)
 2003a04:	e17ffb17 	ldw	r5,-20(fp)
 2003a08:	100d883a 	mov	r6,r2
 2003a0c:	e1c00317 	ldw	r7,12(fp)
 2003a10:	20038e80 	call	20038e8 <vid_set_pixel>
void vid_paint_block (int Hstart,int Vstart, int Hend, int Vend, int color, alt_video_display* display)
{
#ifdef LT24
	int x,y;
	for(y=Vstart;y<Vend;y++){
		for(x=Hstart;x<Hend;x++){
 2003a14:	e0bffa17 	ldw	r2,-24(fp)
 2003a18:	10800044 	addi	r2,r2,1
 2003a1c:	e0bffa15 	stw	r2,-24(fp)
 2003a20:	e0fffa17 	ldw	r3,-24(fp)
 2003a24:	e0bffe17 	ldw	r2,-8(fp)
 2003a28:	18bff416 	blt	r3,r2,20039fc <vid_paint_block+0x38>
******************************************************************/
void vid_paint_block (int Hstart,int Vstart, int Hend, int Vend, int color, alt_video_display* display)
{
#ifdef LT24
	int x,y;
	for(y=Vstart;y<Vend;y++){
 2003a2c:	e0bffb17 	ldw	r2,-20(fp)
 2003a30:	10800044 	addi	r2,r2,1
 2003a34:	e0bffb15 	stw	r2,-20(fp)
 2003a38:	e0fffb17 	ldw	r3,-20(fp)
 2003a3c:	e0bfff17 	ldw	r2,-4(fp)
 2003a40:	18bfeb16 	blt	r3,r2,20039f0 <vid_paint_block+0x2c>
    memcpy( (void*)addr, line, bytes_per_line );
    addr += (display->width * bytes_per_pixel);
  }
  free (line);
#endif
}
 2003a44:	e037883a 	mov	sp,fp
 2003a48:	dfc00117 	ldw	ra,4(sp)
 2003a4c:	df000017 	ldw	fp,0(sp)
 2003a50:	dec00204 	addi	sp,sp,8
 2003a54:	f800283a 	ret

02003a58 <vid_draw_horiz_line>:
*  Purpose: Draws a horizontal line on the screen quickly.
*           Good for filling stuff.
*
******************************************************************/
void vid_draw_horiz_line (short Hstart, short Hend, int V, int color, alt_video_display* display)
{
 2003a58:	defff904 	addi	sp,sp,-28
 2003a5c:	dfc00615 	stw	ra,24(sp)
 2003a60:	df000515 	stw	fp,20(sp)
 2003a64:	df000504 	addi	fp,sp,20
 2003a68:	2007883a 	mov	r3,r4
 2003a6c:	2805883a 	mov	r2,r5
 2003a70:	e1bffe15 	stw	r6,-8(fp)
 2003a74:	e1ffff15 	stw	r7,-4(fp)
 2003a78:	e0fffc0d 	sth	r3,-16(fp)
 2003a7c:	e0bffd0d 	sth	r2,-12(fp)
#ifdef LT24
	int x;
	for(x=Hstart;x<Hend;x++){
 2003a80:	e0bffc0f 	ldh	r2,-16(fp)
 2003a84:	e0bffb15 	stw	r2,-20(fp)
 2003a88:	00000906 	br	2003ab0 <vid_draw_horiz_line+0x58>
		vid_set_pixel(x, V, color, display);
 2003a8c:	e0bfff17 	ldw	r2,-4(fp)
 2003a90:	e13ffb17 	ldw	r4,-20(fp)
 2003a94:	e17ffe17 	ldw	r5,-8(fp)
 2003a98:	100d883a 	mov	r6,r2
 2003a9c:	e1c00217 	ldw	r7,8(fp)
 2003aa0:	20038e80 	call	20038e8 <vid_set_pixel>
******************************************************************/
void vid_draw_horiz_line (short Hstart, short Hend, int V, int color, alt_video_display* display)
{
#ifdef LT24
	int x;
	for(x=Hstart;x<Hend;x++){
 2003aa4:	e0bffb17 	ldw	r2,-20(fp)
 2003aa8:	10800044 	addi	r2,r2,1
 2003aac:	e0bffb15 	stw	r2,-20(fp)
 2003ab0:	e0bffd0f 	ldh	r2,-12(fp)
 2003ab4:	e0fffb17 	ldw	r3,-20(fp)
 2003ab8:	18bff416 	blt	r3,r2,2003a8c <vid_draw_horiz_line+0x34>
    memcpy( (void*)addr, fast_buffer, bytes_per_line );
  }
  free(fast_buffer);
#endif

}
 2003abc:	e037883a 	mov	sp,fp
 2003ac0:	dfc00117 	ldw	ra,4(sp)
 2003ac4:	df000017 	ldw	fp,0(sp)
 2003ac8:	dec00204 	addi	sp,sp,8
 2003acc:	f800283a 	ret

02003ad0 <vid_merge_colors>:
*  Purpose: Takes 5-bit color values for each red, green, and blue
*           and merges them into one 16-bit color value.
*
******************************************************************/
int vid_merge_colors(int red, int green, int blue)
{
 2003ad0:	defffc04 	addi	sp,sp,-16
 2003ad4:	df000315 	stw	fp,12(sp)
 2003ad8:	df000304 	addi	fp,sp,12
 2003adc:	e13ffd15 	stw	r4,-12(fp)
 2003ae0:	e17ffe15 	stw	r5,-8(fp)
 2003ae4:	e1bfff15 	stw	r6,-4(fp)
  // Green actually has 6-bits, but we'll make it's LSB 1 to be consistent.
  return ((blue) | (((green << 1) | 0x1) << 5) | (red << 11));
 2003ae8:	e0bffe17 	ldw	r2,-8(fp)
 2003aec:	1085883a 	add	r2,r2,r2
 2003af0:	10800054 	ori	r2,r2,1
 2003af4:	1006917a 	slli	r3,r2,5
 2003af8:	e0bfff17 	ldw	r2,-4(fp)
 2003afc:	1886b03a 	or	r3,r3,r2
 2003b00:	e0bffd17 	ldw	r2,-12(fp)
 2003b04:	100492fa 	slli	r2,r2,11
 2003b08:	1884b03a 	or	r2,r3,r2
}
 2003b0c:	e037883a 	mov	sp,fp
 2003b10:	df000017 	ldw	fp,0(sp)
 2003b14:	dec00104 	addi	sp,sp,4
 2003b18:	f800283a 	ret

02003b1c <vid_color_convert24_16>:
*           sample and converts it to 16-bits, displayable by the 
*           VGA controller in 16-bit mode
*
******************************************************************/
unsigned short vid_color_convert24_16(char* color24)
{
 2003b1c:	defffc04 	addi	sp,sp,-16
 2003b20:	df000315 	stw	fp,12(sp)
 2003b24:	df000304 	addi	fp,sp,12
 2003b28:	e13fff15 	stw	r4,-4(fp)
	unsigned char red, green, blue;
	unsigned short output;
	
	red = *(color24 + 0) & 0xF8;
 2003b2c:	e0bfff17 	ldw	r2,-4(fp)
 2003b30:	10800003 	ldbu	r2,0(r2)
 2003b34:	1007883a 	mov	r3,r2
 2003b38:	00bffe04 	movi	r2,-8
 2003b3c:	1884703a 	and	r2,r3,r2
 2003b40:	e0bffd05 	stb	r2,-12(fp)
	green = *(color24 + 1) & 0xFC; // green is actualy 6 bits
 2003b44:	e0bfff17 	ldw	r2,-4(fp)
 2003b48:	10800044 	addi	r2,r2,1
 2003b4c:	10800003 	ldbu	r2,0(r2)
 2003b50:	1007883a 	mov	r3,r2
 2003b54:	00bfff04 	movi	r2,-4
 2003b58:	1884703a 	and	r2,r3,r2
 2003b5c:	e0bffd45 	stb	r2,-11(fp)
	blue = *(color24 + 2) & 0xF8;
 2003b60:	e0bfff17 	ldw	r2,-4(fp)
 2003b64:	10800084 	addi	r2,r2,2
 2003b68:	10800003 	ldbu	r2,0(r2)
 2003b6c:	1007883a 	mov	r3,r2
 2003b70:	00bffe04 	movi	r2,-8
 2003b74:	1884703a 	and	r2,r3,r2
 2003b78:	e0bffd85 	stb	r2,-10(fp)

	output = ((blue >> 3) | (green << 3) | (red << 8));  
 2003b7c:	e0bffd83 	ldbu	r2,-10(fp)
 2003b80:	1004d0fa 	srli	r2,r2,3
 2003b84:	10803fcc 	andi	r2,r2,255
 2003b88:	e0fffd43 	ldbu	r3,-11(fp)
 2003b8c:	180690fa 	slli	r3,r3,3
 2003b90:	10c4b03a 	or	r2,r2,r3
 2003b94:	1007883a 	mov	r3,r2
 2003b98:	e0bffd03 	ldbu	r2,-12(fp)
 2003b9c:	1004923a 	slli	r2,r2,8
 2003ba0:	1884b03a 	or	r2,r3,r2
 2003ba4:	e0bffe0d 	sth	r2,-8(fp)
	return output;
 2003ba8:	e0bffe0b 	ldhu	r2,-8(fp)
}
 2003bac:	e037883a 	mov	sp,fp
 2003bb0:	df000017 	ldw	fp,0(sp)
 2003bb4:	dec00104 	addi	sp,sp,4
 2003bb8:	f800283a 	ret

02003bbc <vid_color_convert16_24>:
*           sample and converts it to 16-bits, displayable by the 
*           VGA controller in 16-bit mode
*
******************************************************************/
int vid_color_convert16_24(unsigned short color16, char* color24)
{
 2003bbc:	defffd04 	addi	sp,sp,-12
 2003bc0:	df000215 	stw	fp,8(sp)
 2003bc4:	df000204 	addi	fp,sp,8
 2003bc8:	2005883a 	mov	r2,r4
 2003bcc:	e17fff15 	stw	r5,-4(fp)
 2003bd0:	e0bffe0d 	sth	r2,-8(fp)
	*(color24 + 0) = color16 >> 11;
 2003bd4:	e0bffe0b 	ldhu	r2,-8(fp)
 2003bd8:	1004d2fa 	srli	r2,r2,11
 2003bdc:	1007883a 	mov	r3,r2
 2003be0:	e0bfff17 	ldw	r2,-4(fp)
 2003be4:	10c00005 	stb	r3,0(r2)
	*(color24 + 1) = ((color16 & 0x3E) >> 5);
 2003be8:	e0bfff17 	ldw	r2,-4(fp)
 2003bec:	10800044 	addi	r2,r2,1
 2003bf0:	e0fffe0b 	ldhu	r3,-8(fp)
 2003bf4:	18c00f8c 	andi	r3,r3,62
 2003bf8:	1807d17a 	srai	r3,r3,5
 2003bfc:	10c00005 	stb	r3,0(r2)
	*(color24 + 2) = (color16 & 0x1F);
 2003c00:	e0bfff17 	ldw	r2,-4(fp)
 2003c04:	10800084 	addi	r2,r2,2
 2003c08:	e0fffe0b 	ldhu	r3,-8(fp)
 2003c0c:	18c007cc 	andi	r3,r3,31
 2003c10:	10c00005 	stb	r3,0(r2)
	
	return (0);
 2003c14:	0005883a 	mov	r2,zero
}
 2003c18:	e037883a 	mov	sp,fp
 2003c1c:	df000017 	ldw	fp,0(sp)
 2003c20:	dec00104 	addi	sp,sp,4
 2003c24:	f800283a 	ret

02003c28 <vid_copy_line_to_frame_buffer>:
*           the specified coordinates.  Converts color depth if
*           necessary.
*
******************************************************************/
int vid_copy_line_to_frame_buffer( int x, int y, char* buffer, int num_pixels, int source_color_depth, alt_video_display* display )
{
 2003c28:	defffa04 	addi	sp,sp,-24
 2003c2c:	dfc00515 	stw	ra,20(sp)
 2003c30:	df000415 	stw	fp,16(sp)
 2003c34:	df000404 	addi	fp,sp,16
 2003c38:	e13ffc15 	stw	r4,-16(fp)
 2003c3c:	e17ffd15 	stw	r5,-12(fp)
 2003c40:	e1bffe15 	stw	r6,-8(fp)
 2003c44:	e1ffff15 	stw	r7,-4(fp)
#ifdef LT24
	printf("vid_copy_line_to_frame_buffer is not implemented!\r\n");
 2003c48:	01008134 	movhi	r4,516
 2003c4c:	2136e204 	addi	r4,r4,-9336
 2003c50:	200b65c0 	call	200b65c <puts>
	return(0);
 2003c54:	0005883a 	mov	r2,zero
      memcpy( (void*)dest_addr, (void*)buffer, bytes_in_line );
    }
  }
  return(0);
#endif
}
 2003c58:	e037883a 	mov	sp,fp
 2003c5c:	dfc00117 	ldw	ra,4(sp)
 2003c60:	df000017 	ldw	fp,0(sp)
 2003c64:	dec00204 	addi	sp,sp,8
 2003c68:	f800283a 	ret

02003c6c <vid_draw_sloped_line>:
                           unsigned short horiz_end, 
                           unsigned short vert_end, 
                           unsigned short width, 
                           int color, 
                           alt_video_display* display)
{
 2003c6c:	deffef04 	addi	sp,sp,-68
 2003c70:	dfc01015 	stw	ra,64(sp)
 2003c74:	df000f15 	stw	fp,60(sp)
 2003c78:	df000f04 	addi	fp,sp,60
 2003c7c:	2011883a 	mov	r8,r4
 2003c80:	3009883a 	mov	r4,r6
 2003c84:	3807883a 	mov	r3,r7
 2003c88:	e0800217 	ldw	r2,8(fp)
 2003c8c:	e23ffb0d 	sth	r8,-20(fp)
 2003c90:	e17ffc0d 	sth	r5,-16(fp)
 2003c94:	e13ffd0d 	sth	r4,-12(fp)
 2003c98:	e0fffe0d 	sth	r3,-8(fp)
 2003c9c:	e0bfff0d 	sth	r2,-4(fp)
  // Find the vertical and horizontal distance between the two points
  int horiz_delta = abs(horiz_end-horiz_start);
 2003ca0:	e0fffd0b 	ldhu	r3,-12(fp)
 2003ca4:	e0bffb0b 	ldhu	r2,-20(fp)
 2003ca8:	1885c83a 	sub	r2,r3,r2
 2003cac:	1000010e 	bge	r2,zero,2003cb4 <vid_draw_sloped_line+0x48>
 2003cb0:	0085c83a 	sub	r2,zero,r2
 2003cb4:	e0bff115 	stw	r2,-60(fp)
